Archive member included because of file (symbol)

../../..//mcu/libfitkit/build\libfitkit_f2xx.a(fitkitlib_f2xx.o)
                              build/mcu/app_f2xx.o (initialize_hardware)
../../..//mcu/libfitkit/build\libfitkit_f2xx.a(flash_f2xx.o)
                              ../../..//mcu/libfitkit/build\libfitkit_f2xx.a(fitkitlib_f2xx.o) (flash_init)
../../..//mcu/libfitkit/build\libfitkit_f2xx.a(flash_fpga_f2xx.o)
                              ../../..//mcu/libfitkit/build\libfitkit_f2xx.a(fitkitlib_f2xx.o) (FPGAConfig_init)
../../..//mcu/libfitkit/build\libfitkit_f2xx.a(fpga_f2xx.o)
                              ../../..//mcu/libfitkit/build\libfitkit_f2xx.a(fitkitlib_f2xx.o) (fpga_init)
../../..//mcu/libfitkit/build\libfitkit_f2xx.a(globfun_f2xx.o)
                              ../../..//mcu/libfitkit/build\libfitkit_f2xx.a(flash_f2xx.o) (long2str)
../../..//mcu/libfitkit/build\libfitkit_f2xx.a(spi_f2xx.o)
                              ../../..//mcu/libfitkit/build\libfitkit_f2xx.a(fitkitlib_f2xx.o) (SPI_Init)
../../..//mcu/libfitkit/build\libfitkit_f2xx.a(terminal_f2xx.o)
                              ../../..//mcu/libfitkit/build\libfitkit_f2xx.a(fitkitlib_f2xx.o) (terminal_init)
../../..//mcu/libfitkit/build\libfitkit_f2xx.a(timer_b_f2xx.o)
                              ../../..//mcu/libfitkit/build\libfitkit_f2xx.a(fitkitlib_f2xx.o) (timerb_init)
../../..//mcu/libfitkit/build\libfitkit_f2xx.a(uart_f2xx.o)
                              ../../..//mcu/libfitkit/build\libfitkit_f2xx.a(terminal_f2xx.o) (serial_init)
../../..//mcu/libfitkit/build\libfitkit_f2xx.a(filetransfer_f2xx.o)
                              ../../..//mcu/libfitkit/build\libfitkit_f2xx.a(fitkitlib_f2xx.o) (SPI_WriteFile)
../../..//mcu/libfitkit/build\libfitkit_f2xx.a(cmd_f2xx.o)
                              ../../..//mcu/libfitkit/build\libfitkit_f2xx.a(terminal_f2xx.o) (term_cmd_clear)
d:\mspgcc\bin\..\lib\gcc-lib\msp430\3.2.3\libgcc.a(__stop_progExec__.o)
                              build/mcu/app_f2xx.o (__stop_progExec__)
d:\mspgcc\bin\..\lib\gcc-lib\msp430\3.2.3\libgcc.a(_mulsi3hw.o)
                              build/mcu/os_task_f2xx.o (__umulsi3hw)
d:\mspgcc\bin\..\lib\gcc-lib\msp430\3.2.3\libgcc.a(_udivmodsi4.o)
                              build/mcu/os_core_f2xx.o (__udivmodsi4)
d:\mspgcc\bin\..\lib\gcc-lib\msp430\3.2.3\libgcc.a(_divmodsi4.o)
                              ../../..//mcu/libfitkit/build\libfitkit_f2xx.a(flash_f2xx.o) (__divmodsi4)
d:\mspgcc\bin\..\lib\gcc-lib\msp430\3.2.3\libgcc.a(_reset_vector__.o)
                              d:\mspgcc\bin\..\lib\gcc-lib\msp430\3.2.3\..\..\..\..\msp430\lib\crt430x2617.o (_reset_vector__)
d:\mspgcc\bin\..\lib\gcc-lib\msp430\3.2.3\libgcc.a(__low_level_init.o)
                              d:\mspgcc\bin\..\lib\gcc-lib\msp430\3.2.3\libgcc.a(_reset_vector__.o) (__low_level_init)
d:\mspgcc\bin\..\lib\gcc-lib\msp430\3.2.3\libgcc.a(_copy_data.o)
                              d:\mspgcc\bin\..\lib\gcc-lib\msp430\3.2.3\libgcc.a(_reset_vector__.o) (__do_copy_data)
d:\mspgcc\bin\..\lib\gcc-lib\msp430\3.2.3\libgcc.a(_clear_bss.o)
                              d:\mspgcc\bin\..\lib\gcc-lib\msp430\3.2.3\libgcc.a(_reset_vector__.o) (__do_clear_bss)
d:\mspgcc\bin\..\lib\gcc-lib\msp430\3.2.3\libgcc.a(__jump_to_main.o)
                              d:\mspgcc\bin\..\lib\gcc-lib\msp430\3.2.3\libgcc.a(_reset_vector__.o) (__jump_to_main)
d:\mspgcc\bin\..\lib\gcc-lib\msp430\3.2.3\..\..\..\..\msp430\lib\libc.a(sprintf.o)
                              build/mcu/app_f2xx.o (sprintf)
d:\mspgcc\bin\..\lib\gcc-lib\msp430\3.2.3\..\..\..\..\msp430\lib\libc.a(vsprintf.o)
                              d:\mspgcc\bin\..\lib\gcc-lib\msp430\3.2.3\..\..\..\..\msp430\lib\libc.a(sprintf.o) (vsprintf)
d:\mspgcc\bin\..\lib\gcc-lib\msp430\3.2.3\..\..\..\..\msp430\lib\libc.a(vuprintf.o)
                              d:\mspgcc\bin\..\lib\gcc-lib\msp430\3.2.3\..\..\..\..\msp430\lib\libc.a(vsprintf.o) (vuprintf)
d:\mspgcc\bin\..\lib\gcc-lib\msp430\3.2.3\..\..\..\..\msp430\lib\libc.a(memchr.o)
                              d:\mspgcc\bin\..\lib\gcc-lib\msp430\3.2.3\..\..\..\..\msp430\lib\libc.a(vuprintf.o) (memchr)
d:\mspgcc\bin\..\lib\gcc-lib\msp430\3.2.3\..\..\..\..\msp430\lib\libc.a(isdigit.o)
                              ../../..//mcu/libfitkit/build\libfitkit_f2xx.a(globfun_f2xx.o) (isdigit)
d:\mspgcc\bin\..\lib\gcc-lib\msp430\3.2.3\..\..\..\..\msp430\lib\libc.a(strlen.o)
                              build/mcu/display_f2xx.o (strlen)

Allocating common symbols
Common symbol       size              file

TaskKeyStk          0x100             build/mcu/app_f2xx.o
BreakFlag           0x1               ../../..//mcu/libfitkit/build\libfitkit_f2xx.a(uart_f2xx.o)
TransmitNum         0x1               ../../..//mcu/libfitkit/build\libfitkit_f2xx.a(uart_f2xx.o)
last_ch             0x1               build/mcu/app_f2xx.o
index_buf           0x1               build/mcu/keyboard_f2xx.o
Cmd_Old             0x1               ../../..//mcu/libfitkit/build\libfitkit_f2xx.a(terminal_f2xx.o)
OSLockNesting       0x1               build/mcu/os_core_f2xx.o
OSRunning           0x1               build/mcu/os_core_f2xx.o
OSIdleCtr           0x4               build/mcu/os_core_f2xx.o
OSPrioHighRdy       0x1               build/mcu/os_core_f2xx.o
lcd_shift_addr      0x2               build/mcu/display_f2xx.o
ReceiveNum          0x2               ../../..//mcu/libfitkit/build\libfitkit_f2xx.a(uart_f2xx.o)
lcd_cursor_addr     0x2               build/mcu/display_f2xx.o
OSPrioCur           0x1               build/mcu/os_core_f2xx.o
OSTCBList           0x2               build/mcu/os_core_f2xx.o
OSTickStepState     0x1               build/mcu/os_core_f2xx.o
OSTaskStatStk       0x154             build/mcu/os_core_f2xx.o
CMD_Long            0x4               ../../..//mcu/libfitkit/build\libfitkit_f2xx.a(cmd_f2xx.o)
OSCtxSwCtr          0x4               build/mcu/os_core_f2xx.o
TaskLoadStk         0x100             build/mcu/app_f2xx.o
keyboard_buffer     0x14              build/mcu/keyboard_f2xx.o
CountPage           0x2               ../../..//mcu/libfitkit/build\libfitkit_f2xx.a(flash_f2xx.o)
ReceiveBuf          0x7f              ../../..//mcu/libfitkit/build\libfitkit_f2xx.a(uart_f2xx.o)
OSIdleCtrMax        0x4               build/mcu/os_core_f2xx.o
OSTCBFreeList       0x2               build/mcu/os_core_f2xx.o
TaskDisplayStk      0x100             build/mcu/app_f2xx.o
OSCPUUsage          0x1               build/mcu/os_core_f2xx.o
ReceiveIndexRec     0x2               ../../..//mcu/libfitkit/build\libfitkit_f2xx.a(uart_f2xx.o)
TransmitBuf         0x64              ../../..//mcu/libfitkit/build\libfitkit_f2xx.a(uart_f2xx.o)
ErrorFlag           0x1               ../../..//mcu/libfitkit/build\libfitkit_f2xx.a(uart_f2xx.o)
OSTaskCtr           0x1               build/mcu/os_core_f2xx.o
ReceiveIndex        0x2               ../../..//mcu/libfitkit/build\libfitkit_f2xx.a(uart_f2xx.o)
OSQTbl              0x1c              build/mcu/os_core_f2xx.o
OSTCBHighRdy        0x2               build/mcu/os_core_f2xx.o
OSQFreeList         0x2               build/mcu/os_core_f2xx.o
OSRdyGrp            0x1               build/mcu/os_core_f2xx.o
TransmitIndexSend   0x1               ../../..//mcu/libfitkit/build\libfitkit_f2xx.a(uart_f2xx.o)
OSRdyTbl            0x8               build/mcu/os_core_f2xx.o
TypeBufferFlash     0x1               ../../..//mcu/libfitkit/build\libfitkit_f2xx.a(flash_f2xx.o)
TransmitIndex       0x1               ../../..//mcu/libfitkit/build\libfitkit_f2xx.a(uart_f2xx.o)
PomRS232            0x1               ../../..//mcu/libfitkit/build\libfitkit_f2xx.a(uart_f2xx.o)
OSEventFreeList     0x2               build/mcu/os_core_f2xx.o
AdrBufferFlash      0x2               ../../..//mcu/libfitkit/build\libfitkit_f2xx.a(flash_f2xx.o)
CMDStr              0x19              ../../..//mcu/libfitkit/build\libfitkit_f2xx.a(cmd_f2xx.o)
OSIntNesting        0x1               build/mcu/os_core_f2xx.o
TaskStartStk        0x100             build/mcu/app_f2xx.o
Cmd                 0x1               ../../..//mcu/libfitkit/build\libfitkit_f2xx.a(terminal_f2xx.o)
write_index_buf     0x1               build/mcu/keyboard_f2xx.o
OSTCBCur            0x2               build/mcu/os_core_f2xx.o
chars_in_buf        0x1               build/mcu/keyboard_f2xx.o
OSTime              0x4               build/mcu/os_core_f2xx.o
OSTaskIdleStk       0x154             build/mcu/os_core_f2xx.o
OSEventTbl          0xf0              build/mcu/os_core_f2xx.o
OSTCBTbl            0x18c             build/mcu/os_core_f2xx.o
OSStatRdy           0x1               build/mcu/os_core_f2xx.o
OSTCBPrioTbl        0x80              build/mcu/os_core_f2xx.o
OSISRStkPtr         0x2               build/mcu/os_cpu_c_f2xx.o
CMDStrLen           0x1               ../../..//mcu/libfitkit/build\libfitkit_f2xx.a(cmd_f2xx.o)
OSIdleCtrRun        0x4               build/mcu/os_core_f2xx.o

Memory Configuration

Name             Origin             Length             Attributes
text             0x00003100         0x0000cec0         xr
data             0x00001100         0x00002000         xrw
vectors          0x0000ffc0         0x00000040         rw
bootloader       0x00000c00         0x00000400         xr
infomem          0x00001000         0x00000100         xr
infomemnobits    0x00001000         0x00000100         xr
*default*        0x00000000         0xffffffff

Linker script and memory map

LOAD d:\mspgcc\bin\..\lib\gcc-lib\msp430\3.2.3\..\..\..\..\msp430\lib\crt430x2617.o
LOAD build/mcu/os_cpu_c_f2xx.o
LOAD build/mcu/os_cpu_a_f2xx.o
LOAD build/mcu/os_core_f2xx.o
LOAD build/mcu/os_flag_f2xx.o
LOAD build/mcu/os_mbox_f2xx.o
LOAD build/mcu/os_mem_f2xx.o
LOAD build/mcu/os_mutex_f2xx.o
LOAD build/mcu/os_q_f2xx.o
LOAD build/mcu/os_sem_f2xx.o
LOAD build/mcu/os_task_f2xx.o
LOAD build/mcu/os_time_f2xx.o
LOAD build/mcu/os_tmr_f2xx.o
LOAD build/mcu/keyboard_f2xx.o
LOAD build/mcu/display_f2xx.o
LOAD build/mcu/app_f2xx.o
LOAD ../../..//mcu/libfitkit/build\libfitkit_f2xx.a
LOAD d:\mspgcc\bin\..\lib\gcc-lib\msp430\3.2.3\libgcc.a
LOAD d:\mspgcc\bin\..\lib\gcc-lib\msp430\3.2.3\..\..\..\..\msp430\lib\libc.a
LOAD d:\mspgcc\bin\..\lib\gcc-lib\msp430\3.2.3\libgcc.a

.hash
 *(.hash)

.dynsym
 *(.dynsym)

.dynstr
 *(.dynstr)

.gnu.version
 *(.gnu.version)

.gnu.version_d
 *(.gnu.version_d)

.gnu.version_r
 *(.gnu.version_r)

.rel.init
 *(.rel.init)

.rela.init
 *(.rela.init)

.rel.text
 *(.rel.text)
 *(.rel.text.*)
 *(.rel.gnu.linkonce.t*)

.rela.text
 *(.rela.text)
 *(.rela.text.*)
 *(.rela.gnu.linkonce.t*)

.rel.fini
 *(.rel.fini)

.rela.fini
 *(.rela.fini)

.rel.rodata
 *(.rel.rodata)
 *(.rel.rodata.*)
 *(.rel.gnu.linkonce.r*)

.rela.rodata
 *(.rela.rodata)
 *(.rela.rodata.*)
 *(.rela.gnu.linkonce.r*)

.rel.data
 *(.rel.data)
 *(.rel.data.*)
 *(.rel.gnu.linkonce.d*)

.rela.data
 *(.rela.data)
 *(.rela.data.*)
 *(.rela.gnu.linkonce.d*)

.rel.ctors
 *(.rel.ctors)

.rela.ctors
 *(.rela.ctors)

.rel.dtors
 *(.rel.dtors)

.rela.dtors
 *(.rela.dtors)

.rel.got
 *(.rel.got)

.rela.got
 *(.rela.got)

.rel.bss
 *(.rel.bss)

.rela.bss
 *(.rela.bss)

.rel.plt
 *(.rel.plt)

.rela.plt
 *(.rela.plt)

.text           0x00003100     0x9dfe
                0x00003100                . = ALIGN (0x2)
 *(.init)
 *(.init)
 *(.init0)
 .init0         0x00003100        0x0 d:\mspgcc\bin\..\lib\gcc-lib\msp430\3.2.3\libgcc.a(_reset_vector__.o)
                0x00003100                _reset_vector__
 *(.init0)
 *(.init1)
 *(.init1)
 *(.init2)
 *(.init2)
 *(.init3)
 .init3         0x00003100        0x6 d:\mspgcc\bin\..\lib\gcc-lib\msp430\3.2.3\libgcc.a(__low_level_init.o)
                0x00003100                __low_level_init
 *(.init3)
 *(.init4)
 .init4         0x00003106       0x12 d:\mspgcc\bin\..\lib\gcc-lib\msp430\3.2.3\libgcc.a(_copy_data.o)
                0x00003106                __do_copy_data
 .init4         0x00003118       0x10 d:\mspgcc\bin\..\lib\gcc-lib\msp430\3.2.3\libgcc.a(_clear_bss.o)
                0x00003118                __do_clear_bss
 *(.init4)
 *(.init5)
 *(.init5)
 *(.init6)
 *(.init6)
 *(.init7)
 *(.init7)
 *(.init8)
 *(.init8)
 *(.init9)
 .init9         0x00003128        0x4 d:\mspgcc\bin\..\lib\gcc-lib\msp430\3.2.3\libgcc.a(__jump_to_main.o)
                0x00003128                __jump_to_main
 *(.init9)
                0x0000312c                __ctors_start = .
 *(.ctors)
 *(.ctors)
                0x0000312c                __ctors_end = .
                0x0000312c                __dtors_start = .
 *(.dtors)
 *(.dtors)
                0x0000312c                __dtors_end = .
                0x0000312c                . = ALIGN (0x2)
 *(.text)
 .text          0x0000312c        0x6 d:\mspgcc\bin\..\lib\gcc-lib\msp430\3.2.3\..\..\..\..\msp430\lib\crt430x2617.o
                0x0000312c                vector_ffc0
                0x0000312c                vector_ffc8
                0x0000312c                vector_ffcc
                0x0000312c                _unexpected_1_
                0x0000312c                vector_ffe0
                0x0000312c                vector_ffc4
                0x0000312c                vector_fff0
                0x0000312c                vector_ffce
                0x0000312c                vector_fffc
                0x0000312c                vector_ffe4
                0x0000312c                vector_ffd6
                0x0000312c                vector_ffc2
                0x0000312c                vector_ffd4
                0x0000312c                vector_ffc6
                0x0000312c                vector_ffd2
                0x0000312c                vector_ffca
                0x0000312c                vector_ffde
                0x0000312c                vector_ffe2
                0x0000312c                vector_ffe8
                0x00003130                _unexpected_
                0x0000312c                vector_fffa
                0x0000312c                vector_fff8
                0x0000312c                vector_fff2
                0x0000312c                vector_ffd8
                0x0000312c                vector_ffe6
                0x0000312c                vector_ffd0
                0x0000312c                vector_ffdc
                0x0000312c                vector_fff6
                0x0000312c                vector_ffda
                0x0000312c                vector_ffea
 .text          0x00003132      0x17e build/mcu/os_cpu_c_f2xx.o
                0x00003146                OSTaskCreateHook
                0x00003184                OSTaskStatHook
                0x00003132                OSInitHookBegin
                0x00003160                OSTaskDelHook
                0x000032a6                OSTimeTickHook
                0x0000328c                OSTCBInitHook
                0x0000318e                OSTaskStkInit
                0x0000313c                OSInitHookEnd
                0x00003282                OSTaskSwHook
                0x0000317a                OSTaskIdleHook
 .text          0x000032b0      0x120 build/mcu/os_cpu_a_f2xx.o
                0x000032b0                OSStartHighRdy
                0x000032dc                OSCtxSw
                0x0000332e                OSIntCtxSw
                0x0000335e                vector_fff4
                0x000033cc                OSCPURestoreSR
                0x000033c6                OSCPUSaveSR
 .text          0x000033d0      0xffa build/mcu/os_core_f2xx.o
                0x0000368e                OSIntEnter
                0x0000419c                OS_TCBInit
                0x00003b02                OS_EventTaskRemove
                0x000034d0                OSEventNameGet
                0x000036a8                OSIntExit
                0x00003e94                OS_MemCopy
                0x00003edc                OS_Sched
                0x00004042                OS_TaskStat
                0x00003e5e                OS_MemClr
                0x0000397e                OS_EventTaskRdy
                0x0000375c                OSSchedUnlock
                0x000037ea                OSStatInit
                0x00003974                OS_Dummy
                0x00003598                OSEventNameSet
                0x000033d0                OSUnMapTbl
                0x00003a5a                OS_EventTaskWait
                0x00004118                OS_TaskStatStkChk
                0x000037b8                OSStart
                0x00003846                OSTimeTick
                0x0000371e                OSSchedLock
                0x00003f7a                OS_StrCopy
                0x00003660                OSInit
                0x00003fd0                OS_StrLen
                0x00003966                OSVersion
                0x00003b8c                OS_EventWaitListInit
                0x00004006                OS_TaskIdle
 .text          0x000043ca        0x0 build/mcu/os_flag_f2xx.o
 .text          0x000043ca      0x74c build/mcu/os_mbox_f2xx.o
                0x00004a5c                OSMboxQuery
                0x000048d6                OSMboxPost
                0x000047e4                OSMboxPendAbort
                0x0000442c                OSMboxCreate
                0x0000464c                OSMboxPend
                0x000043ca                OSMboxAccept
                0x00004980                OSMboxPostOpt
                0x000044c0                OSMboxDel
 .text          0x00004b16        0x0 build/mcu/os_mem_f2xx.o
 .text          0x00004b16      0xb2e build/mcu/os_mutex_f2xx.o
                0x00004b16                OSMutexAccept
                0x00004f56                OSMutexPend
                0x00004d54                OSMutexDel
                0x00004c26                OSMutexCreate
                0x0000545c                OSMutexQuery
                0x00005318                OSMutexPost
 .text          0x00005644      0xb5a build/mcu/os_q_f2xx.o
                0x000059f4                OSQFlush
                0x00005644                OSQAccept
                0x00005d2e                OSQPost
                0x00005a70                OSQPend
                0x00005e0e                OSQPostFront
                0x0000571c                OSQCreate
                0x00005ef2                OSQPostOpt
                0x00005838                OSQDel
                0x00005c3c                OSQPendAbort
                0x00006136                OS_QInit
                0x0000603e                OSQQuery
 .text          0x0000619e      0x6c2 build/mcu/os_sem_f2xx.o
                0x0000642c                OSSemPend
                0x0000619e                OSSemAccept
                0x0000657e                OSSemPendAbort
                0x00006672                OSSemPost
                0x00006208                OSSemCreate
                0x0000670c                OSSemQuery
                0x000067c8                OSSemSet
                0x0000629e                OSSemDel
 .text          0x00006860      0xe52 build/mcu/os_task_f2xx.o
                0x00006bf8                OSTaskCreateExt
                0x00006af8                OSTaskCreate
                0x00006860                OSTaskChangePrio
                0x00006d42                OSTaskDel
                0x000070f2                OSTaskNameSet
                0x00006f18                OSTaskDelReq
                0x00007202                OSTaskResume
                0x00006fe0                OSTaskNameGet
                0x0000730a                OSTaskStkChk
                0x000075a0                OSTaskQuery
                0x0000765a                OS_TaskStkClr
                0x00007484                OSTaskSuspend
 .text          0x000076b2      0x3a4 build/mcu/os_time_f2xx.o
                0x00007a16                OSTimeSet
                0x000076b2                OSTimeDly
                0x0000773c                OSTimeDlyHMSM
                0x000078be                OSTimeDlyResume
                0x000079d6                OSTimeGet
 .text          0x00007a56        0x0 build/mcu/os_tmr_f2xx.o
 .text          0x00007a56      0x1aa build/mcu/keyboard_f2xx.o
                0x00007a98                keyboard_handle_interrupt
                0x00007ae6                key_decode
                0x00007a56                keyboard_get_char
 .text          0x00007c00      0x282 build/mcu/display_f2xx.o
                0x00007c5c                LCD_clear
                0x00007e52                LCD_rotate
                0x00007c8e                LCD_init
                0x00007dcc                LCD_write_string
                0x00007cd8                LCD_load_char
                0x00007cba                LCD_char2dis
                0x00007d48                LCD_append_char
                0x00007df0                LCD_append_string
                0x00007c00                LCD_send_cmd
 .text          0x00007e82      0x63c build/mcu/app_f2xx.o
                0x0000842c                startTask
                0x00007fac                keyboardTask
                0x000082fc                displayTask
                0x00007e96                decode_user_cmd
                0x00007e8c                print_user_help
                0x0000848a                main
                0x00008246                loadTask
                0x00007e82                fpga_initialized
 .text          0x000084be      0x40e ../../..//mcu/libfitkit/build\libfitkit_f2xx.a(fitkitlib_f2xx.o)
                0x000084ea                clock_system_init
                0x000084be                delay_cycle
                0x00008534                smclk_stop
                0x000085b8                fpga_configure_from_flash
                0x000087ac                initialize_hardware_
                0x000088bc                initialize_hardware
                0x000086b6                fpga_configure_from_mcu
 .text          0x000088cc     0x1448 ../../..//mcu/libfitkit/build\libfitkit_f2xx.a(flash_f2xx.o)
                0x000099a2                FLASH_Dump_Page
                0x0000988e                FLASH_EraseAll
                0x00009222                FLASH_ReadDataBuffer
                0x000097e2                FLASH_ErasePage
                0x00008cc6                FLASH_print_status
                0x00009946                FLASH_Dump_Block
                0x00009a52                FLASH_Dump_Adr
                0x000089c4                flash_init
                0x00009838                FLASH_EraseBlock
                0x00009410                FLASH_ReadDataA
                0x00009192                FLASH_WriteDataBuffer
                0x00008ac0                FLASH_availablepages
                0x000093a6                FLASH_isPageBlank
                0x00008ba0                FLASH_IsReady
                0x00008b2e                FLASH_blocks
                0x000088cc                FLASH_PageToAddr
                0x000090c6                FLASH_WriteToBuffer
                0x00009714                FLASH_WriteByte
                0x00009338                FLASH_ReadData_Finalize
                0x0000950a                FLASH_ReadMemoryBuffer
                0x00008b48                FLASH_size
                0x000098f6                FLASH_Dump_All
                0x000088fe                flash_init_
                0x00009494                FLASH_WriteBufferMemory
                0x000092be                FLASH_ReadData_Initialize
                0x00009346                FLASH_ReadData
                0x000097b8                FLASH_EraseByte
                0x00008b6e                FLASH_ReadStatus
                0x0000958e                FLASH_ProgFPGA
 .text          0x00009d14      0x418 ../../..//mcu/libfitkit/build\libfitkit_f2xx.a(flash_fpga_f2xx.o)
                0x00009d14                delay_cycle_
                0x00009ec0                FPGAConfig_finalize
                0x00009f12                FPGAConfig_detect_fpga
                0x00009dda                FPGAConfig_initialize
                0x00009d40                FPGAConfig_init
 .text          0x0000a12c      0x286 ../../..//mcu/libfitkit/build\libfitkit_f2xx.a(fpga_f2xx.o)
                0x0000a158                FPGA_SPI_RW_A8_D8
                0x0000a1a8                FPGA_SPI_RW_A8_D16
                0x0000a2bc                FPGA_SPI_RW_AN_DN
                0x0000a12c                fpga_init
                0x0000a21e                FPGA_SPI_RW_A8_DN
                0x0000a13e                FPGA_reset
 .text          0x0000a3b2      0x706 ../../..//mcu/libfitkit/build\libfitkit_f2xx.a(globfun_f2xx.o)
                0x0000a3b2                chr2bin
                0x0000a4c4                chr2digit
                0x0000a46c                chr2hex
                0x0000a866                strrev
                0x0000a5f6                str2long
                0x0000a6c6                str2long_2x
                0x0000a540                hex2chr
                0x0000a420                digit2chr
                0x0000a8d2                strupper
                0x0000a968                long2str
                0x0000a594                rchr
 .text          0x0000aab8       0xb8 ../../..//mcu/libfitkit/build\libfitkit_f2xx.a(spi_f2xx.o)
                0x0000aafa                SPI_Close
                0x0000ab14                SPI_read_wait_write
                0x0000ab44                SPI_write_wait_read
                0x0000aab8                SPI_Init
 .text          0x0000ab70      0x926 ../../..//mcu/libfitkit/build\libfitkit_f2xx.a(terminal_f2xx.o)
                0x0000ab94                terminal_init
                0x0000aea0                terminal_idle_cb
                0x0000b486                terminal_idle
 .text          0x0000b496       0xdc ../../..//mcu/libfitkit/build\libfitkit_f2xx.a(timer_b_f2xx.o)
                0x0000b496                timerb_init
                0x0000b4ac                delay_ms
 .text          0x0000b572      0x3b0 ../../..//mcu/libfitkit/build\libfitkit_f2xx.a(uart_f2xx.o)
                0x0000b6a8                term_send_str
                0x0000b8ac                TxintrRS232
                0x0000b6e6                term_send_num
                0x0000b728                term_send_hex
                0x0000b8ea                RxintrRS232
                0x0000b8ac                vector_ffec
                0x0000b7ac                term_rcv_block
                0x0000b64a                term_send_char_idle
                0x0000b5d6                serial_close
                0x0000b8ea                vector_ffee
                0x0000b84a                term_rcv_char_t
                0x0000b572                serial_init
                0x0000b670                term_send_char_hex
                0x0000b76a                term_rcv_char
                0x0000b606                term_send_char
 .text          0x0000b922      0x69e ../../..//mcu/libfitkit/build\libfitkit_f2xx.a(filetransfer_f2xx.o)
                0x0000b9e0                send_header
                0x0000beca                SPI_WriteFile
                0x0000be12                sendPageSPI
                0x0000bb48                writePageToFlash
                0x0000bf64                FLASH_WriteFile
                0x0000b922                serial_rx_timeout
                0x0000bce4                transmittFile
                0x0000b97c                serial_tx_buf
 .text          0x0000bfc0      0x7f2 ../../..//mcu/libfitkit/build\libfitkit_f2xx.a(cmd_f2xx.o)
                0x0000c09a                term_cmd_decode
                0x0000bfce                term_cmd_read
                0x0000bfc0                term_cmd_clear
 .text          0x0000c7b2        0x0 d:\mspgcc\bin\..\lib\gcc-lib\msp430\3.2.3\libgcc.a(__stop_progExec__.o)
 .text          0x0000c7b2        0x0 d:\mspgcc\bin\..\lib\gcc-lib\msp430\3.2.3\libgcc.a(_mulsi3hw.o)
 .text          0x0000c7b2        0x0 d:\mspgcc\bin\..\lib\gcc-lib\msp430\3.2.3\libgcc.a(_udivmodsi4.o)
 .text          0x0000c7b2        0x0 d:\mspgcc\bin\..\lib\gcc-lib\msp430\3.2.3\libgcc.a(_divmodsi4.o)
 .text          0x0000c7b2        0x0 d:\mspgcc\bin\..\lib\gcc-lib\msp430\3.2.3\libgcc.a(_reset_vector__.o)
 .text          0x0000c7b2        0x0 d:\mspgcc\bin\..\lib\gcc-lib\msp430\3.2.3\libgcc.a(__low_level_init.o)
 .text          0x0000c7b2        0x0 d:\mspgcc\bin\..\lib\gcc-lib\msp430\3.2.3\libgcc.a(_copy_data.o)
 .text          0x0000c7b2        0x0 d:\mspgcc\bin\..\lib\gcc-lib\msp430\3.2.3\libgcc.a(_clear_bss.o)
 .text          0x0000c7b2        0x0 d:\mspgcc\bin\..\lib\gcc-lib\msp430\3.2.3\libgcc.a(__jump_to_main.o)
 .text          0x0000c7b2       0x16 d:\mspgcc\bin\..\lib\gcc-lib\msp430\3.2.3\..\..\..\..\msp430\lib\libc.a(sprintf.o)
                0x0000c7b2                sprintf
 .text          0x0000c7c8       0x2a d:\mspgcc\bin\..\lib\gcc-lib\msp430\3.2.3\..\..\..\..\msp430\lib\libc.a(vsprintf.o)
                0x0000c7d8                vsprintf
 .text          0x0000c7f2      0x624 d:\mspgcc\bin\..\lib\gcc-lib\msp430\3.2.3\..\..\..\..\msp430\lib\libc.a(vuprintf.o)
                0x0000c856                vuprintf
 .text          0x0000ce16       0x24 d:\mspgcc\bin\..\lib\gcc-lib\msp430\3.2.3\..\..\..\..\msp430\lib\libc.a(memchr.o)
                0x0000ce16                memchr
 .text          0x0000ce3a       0x12 d:\mspgcc\bin\..\lib\gcc-lib\msp430\3.2.3\..\..\..\..\msp430\lib\libc.a(isdigit.o)
                0x0000ce3a                isdigit
 .text          0x0000ce4c       0x14 d:\mspgcc\bin\..\lib\gcc-lib\msp430\3.2.3\..\..\..\..\msp430\lib\libc.a(strlen.o)
                0x0000ce4c                strlen
                0x0000ce60                . = ALIGN (0x2)
 *(.text.*)
 .text.libgcc   0x0000ce60        0x0 d:\mspgcc\bin\..\lib\gcc-lib\msp430\3.2.3\libgcc.a(__stop_progExec__.o)
 .text.libgcc   0x0000ce60       0x28 d:\mspgcc\bin\..\lib\gcc-lib\msp430\3.2.3\libgcc.a(_mulsi3hw.o)
                0x0000ce60                __umulsi3hw
 .text.libgcc   0x0000ce88       0x2a d:\mspgcc\bin\..\lib\gcc-lib\msp430\3.2.3\libgcc.a(_udivmodsi4.o)
                0x0000ce88                __udivmodsi4
 .text.libgcc   0x0000ceb2       0x4a d:\mspgcc\bin\..\lib\gcc-lib\msp430\3.2.3\libgcc.a(_divmodsi4.o)
                0x0000ceb2                __divmodsi4
 .text.libgcc   0x0000cefc        0x0 d:\mspgcc\bin\..\lib\gcc-lib\msp430\3.2.3\libgcc.a(_reset_vector__.o)
 .text.libgcc   0x0000cefc        0x0 d:\mspgcc\bin\..\lib\gcc-lib\msp430\3.2.3\libgcc.a(__low_level_init.o)
 .text.libgcc   0x0000cefc        0x0 d:\mspgcc\bin\..\lib\gcc-lib\msp430\3.2.3\libgcc.a(_copy_data.o)
 .text.libgcc   0x0000cefc        0x0 d:\mspgcc\bin\..\lib\gcc-lib\msp430\3.2.3\libgcc.a(_clear_bss.o)
 .text.libgcc   0x0000cefc        0x0 d:\mspgcc\bin\..\lib\gcc-lib\msp430\3.2.3\libgcc.a(__jump_to_main.o)
                0x0000cefc                . = ALIGN (0x2)
 *(.fini9)
 .fini9         0x0000cefc        0x0 d:\mspgcc\bin\..\lib\gcc-lib\msp430\3.2.3\libgcc.a(__stop_progExec__.o)
                0x0000cefc                __stop_progExec__
 *(.fini9)
 *(.fini8)
 *(.fini8)
 *(.fini7)
 *(.fini7)
 *(.fini6)
 *(.fini6)
 *(.fini5)
 *(.fini5)
 *(.fini4)
 *(.fini4)
 *(.fini3)
 *(.fini3)
 *(.fini2)
 *(.fini2)
 *(.fini1)
 *(.fini1)
 *(.fini0)
 .fini0         0x0000cefc        0x2 d:\mspgcc\bin\..\lib\gcc-lib\msp430\3.2.3\libgcc.a(__stop_progExec__.o)
 *(.fini0)
 *(.fini)
 *(.fini)
                0x0000cefe                _etext = .

.data           0x00001100        0xe load address 0x0000cefe
                0x00001100                PROVIDE (__data_start, .)
                0x00001100                . = ALIGN (0x2)
 *(.data)
 .data          0x00001100        0x0 d:\mspgcc\bin\..\lib\gcc-lib\msp430\3.2.3\..\..\..\..\msp430\lib\crt430x2617.o
 .data          0x00001100        0x0 build/mcu/os_cpu_c_f2xx.o
 .data          0x00001100        0x0 build/mcu/os_cpu_a_f2xx.o
 .data          0x00001100        0x0 build/mcu/os_core_f2xx.o
 .data          0x00001100        0x0 build/mcu/os_flag_f2xx.o
 .data          0x00001100        0x0 build/mcu/os_mbox_f2xx.o
 .data          0x00001100        0x0 build/mcu/os_mem_f2xx.o
 .data          0x00001100        0x0 build/mcu/os_mutex_f2xx.o
 .data          0x00001100        0x0 build/mcu/os_q_f2xx.o
 .data          0x00001100        0x0 build/mcu/os_sem_f2xx.o
 .data          0x00001100        0x0 build/mcu/os_task_f2xx.o
 .data          0x00001100        0x0 build/mcu/os_time_f2xx.o
 .data          0x00001100        0x0 build/mcu/os_tmr_f2xx.o
 .data          0x00001100        0x0 build/mcu/keyboard_f2xx.o
 .data          0x00001100        0x0 build/mcu/display_f2xx.o
 .data          0x00001100        0x6 build/mcu/app_f2xx.o
                0x00001105                light_green
                0x00001104                light_red
                0x00001101                d_pressed
                0x00001100                c_pressed
                0x00001102                load_pressed
                0x00001103                previous_c_pressed
 .data          0x00001106        0x4 ../../..//mcu/libfitkit/build\libfitkit_f2xx.a(fitkitlib_f2xx.o)
                0x00001106                FPGA_config_length
 .data          0x0000110a        0x2 ../../..//mcu/libfitkit/build\libfitkit_f2xx.a(flash_f2xx.o)
                0x0000110a                CNT_PAGES
 .data          0x0000110c        0x0 ../../..//mcu/libfitkit/build\libfitkit_f2xx.a(flash_fpga_f2xx.o)
 .data          0x0000110c        0x0 ../../..//mcu/libfitkit/build\libfitkit_f2xx.a(fpga_f2xx.o)
 .data          0x0000110c        0x0 ../../..//mcu/libfitkit/build\libfitkit_f2xx.a(globfun_f2xx.o)
 .data          0x0000110c        0x0 ../../..//mcu/libfitkit/build\libfitkit_f2xx.a(spi_f2xx.o)
 .data          0x0000110c        0x0 ../../..//mcu/libfitkit/build\libfitkit_f2xx.a(terminal_f2xx.o)
 .data          0x0000110c        0x0 ../../..//mcu/libfitkit/build\libfitkit_f2xx.a(timer_b_f2xx.o)
 .data          0x0000110c        0x0 ../../..//mcu/libfitkit/build\libfitkit_f2xx.a(uart_f2xx.o)
 .data          0x0000110c        0x0 ../../..//mcu/libfitkit/build\libfitkit_f2xx.a(filetransfer_f2xx.o)
 .data          0x0000110c        0x0 ../../..//mcu/libfitkit/build\libfitkit_f2xx.a(cmd_f2xx.o)
 .data          0x0000110c        0x0 d:\mspgcc\bin\..\lib\gcc-lib\msp430\3.2.3\libgcc.a(__stop_progExec__.o)
 .data          0x0000110c        0x0 d:\mspgcc\bin\..\lib\gcc-lib\msp430\3.2.3\libgcc.a(_mulsi3hw.o)
 .data          0x0000110c        0x0 d:\mspgcc\bin\..\lib\gcc-lib\msp430\3.2.3\libgcc.a(_udivmodsi4.o)
 .data          0x0000110c        0x0 d:\mspgcc\bin\..\lib\gcc-lib\msp430\3.2.3\libgcc.a(_divmodsi4.o)
 .data          0x0000110c        0x0 d:\mspgcc\bin\..\lib\gcc-lib\msp430\3.2.3\libgcc.a(_reset_vector__.o)
 .data          0x0000110c        0x0 d:\mspgcc\bin\..\lib\gcc-lib\msp430\3.2.3\libgcc.a(__low_level_init.o)
 .data          0x0000110c        0x0 d:\mspgcc\bin\..\lib\gcc-lib\msp430\3.2.3\libgcc.a(_copy_data.o)
 .data          0x0000110c        0x0 d:\mspgcc\bin\..\lib\gcc-lib\msp430\3.2.3\libgcc.a(_clear_bss.o)
 .data          0x0000110c        0x0 d:\mspgcc\bin\..\lib\gcc-lib\msp430\3.2.3\libgcc.a(__jump_to_main.o)
 .data          0x0000110c        0x0 d:\mspgcc\bin\..\lib\gcc-lib\msp430\3.2.3\..\..\..\..\msp430\lib\libc.a(sprintf.o)
 .data          0x0000110c        0x0 d:\mspgcc\bin\..\lib\gcc-lib\msp430\3.2.3\..\..\..\..\msp430\lib\libc.a(vsprintf.o)
 .data          0x0000110c        0x2 d:\mspgcc\bin\..\lib\gcc-lib\msp430\3.2.3\..\..\..\..\msp430\lib\libc.a(vuprintf.o)
 .data          0x0000110e        0x0 d:\mspgcc\bin\..\lib\gcc-lib\msp430\3.2.3\..\..\..\..\msp430\lib\libc.a(memchr.o)
 .data          0x0000110e        0x0 d:\mspgcc\bin\..\lib\gcc-lib\msp430\3.2.3\..\..\..\..\msp430\lib\libc.a(isdigit.o)
 .data          0x0000110e        0x0 d:\mspgcc\bin\..\lib\gcc-lib\msp430\3.2.3\..\..\..\..\msp430\lib\libc.a(strlen.o)
 *(SORT(.data.*))
                0x0000110e                . = ALIGN (0x2)
 *(.gnu.linkonce.d*)
                0x0000110e                . = ALIGN (0x2)
                0x0000110e                _edata = .
                0x0000cefe                PROVIDE (__data_load_start, LOADADDR (.data))
                0x0000000e                PROVIDE (__data_size, SIZEOF (.data))

.bootloader     0x00000c00        0x0
                0x00000c00                PROVIDE (__boot_start, .)
 *(.bootloader)
                0x00000c00                . = ALIGN (0x2)
 *(.bootloader.*)

.infomem        0x00001000        0x0
 *(.infomem)
                0x00001000                . = ALIGN (0x2)
 *(.infomem.*)

.infomemnobits  0x00001000        0x0
 *(.infomemnobits)
                0x00001000                . = ALIGN (0x2)
 *(.infomemnobits.*)

.bss            0x0000110e      0xb32
                0x0000110e                PROVIDE (__bss_start, .)
 *(.bss)
 .bss           0x0000110e        0x0 d:\mspgcc\bin\..\lib\gcc-lib\msp430\3.2.3\..\..\..\..\msp430\lib\crt430x2617.o
 .bss           0x0000110e        0x0 build/mcu/os_cpu_c_f2xx.o
 .bss           0x0000110e        0x0 build/mcu/os_cpu_a_f2xx.o
 .bss           0x0000110e        0x0 build/mcu/os_core_f2xx.o
 .bss           0x0000110e        0x0 build/mcu/os_flag_f2xx.o
 .bss           0x0000110e        0x0 build/mcu/os_mbox_f2xx.o
 .bss           0x0000110e        0x0 build/mcu/os_mem_f2xx.o
 .bss           0x0000110e        0x0 build/mcu/os_mutex_f2xx.o
 .bss           0x0000110e        0x0 build/mcu/os_q_f2xx.o
 .bss           0x0000110e        0x0 build/mcu/os_sem_f2xx.o
 .bss           0x0000110e        0x0 build/mcu/os_task_f2xx.o
 .bss           0x0000110e        0x0 build/mcu/os_time_f2xx.o
 .bss           0x0000110e        0x0 build/mcu/os_tmr_f2xx.o
 .bss           0x0000110e        0x0 build/mcu/keyboard_f2xx.o
 .bss           0x0000110e        0x0 build/mcu/display_f2xx.o
 .bss           0x0000110e        0x0 build/mcu/app_f2xx.o
 .bss           0x0000110e        0x0 ../../..//mcu/libfitkit/build\libfitkit_f2xx.a(fitkitlib_f2xx.o)
 .bss           0x0000110e        0x0 ../../..//mcu/libfitkit/build\libfitkit_f2xx.a(flash_f2xx.o)
 .bss           0x0000110e        0x0 ../../..//mcu/libfitkit/build\libfitkit_f2xx.a(flash_fpga_f2xx.o)
 .bss           0x0000110e        0x0 ../../..//mcu/libfitkit/build\libfitkit_f2xx.a(fpga_f2xx.o)
 .bss           0x0000110e        0x0 ../../..//mcu/libfitkit/build\libfitkit_f2xx.a(globfun_f2xx.o)
 .bss           0x0000110e        0x0 ../../..//mcu/libfitkit/build\libfitkit_f2xx.a(spi_f2xx.o)
 .bss           0x0000110e        0x0 ../../..//mcu/libfitkit/build\libfitkit_f2xx.a(terminal_f2xx.o)
 .bss           0x0000110e        0x0 ../../..//mcu/libfitkit/build\libfitkit_f2xx.a(timer_b_f2xx.o)
 .bss           0x0000110e        0x0 ../../..//mcu/libfitkit/build\libfitkit_f2xx.a(uart_f2xx.o)
 .bss           0x0000110e        0x0 ../../..//mcu/libfitkit/build\libfitkit_f2xx.a(filetransfer_f2xx.o)
 .bss           0x0000110e        0x0 ../../..//mcu/libfitkit/build\libfitkit_f2xx.a(cmd_f2xx.o)
 .bss           0x0000110e        0x0 d:\mspgcc\bin\..\lib\gcc-lib\msp430\3.2.3\libgcc.a(__stop_progExec__.o)
 .bss           0x0000110e        0x0 d:\mspgcc\bin\..\lib\gcc-lib\msp430\3.2.3\libgcc.a(_mulsi3hw.o)
 .bss           0x0000110e        0x0 d:\mspgcc\bin\..\lib\gcc-lib\msp430\3.2.3\libgcc.a(_udivmodsi4.o)
 .bss           0x0000110e        0x0 d:\mspgcc\bin\..\lib\gcc-lib\msp430\3.2.3\libgcc.a(_divmodsi4.o)
 .bss           0x0000110e        0x0 d:\mspgcc\bin\..\lib\gcc-lib\msp430\3.2.3\libgcc.a(_reset_vector__.o)
 .bss           0x0000110e        0x0 d:\mspgcc\bin\..\lib\gcc-lib\msp430\3.2.3\libgcc.a(__low_level_init.o)
 .bss           0x0000110e        0x0 d:\mspgcc\bin\..\lib\gcc-lib\msp430\3.2.3\libgcc.a(_copy_data.o)
 .bss           0x0000110e        0x0 d:\mspgcc\bin\..\lib\gcc-lib\msp430\3.2.3\libgcc.a(_clear_bss.o)
 .bss           0x0000110e        0x0 d:\mspgcc\bin\..\lib\gcc-lib\msp430\3.2.3\libgcc.a(__jump_to_main.o)
 .bss           0x0000110e        0x0 d:\mspgcc\bin\..\lib\gcc-lib\msp430\3.2.3\..\..\..\..\msp430\lib\libc.a(sprintf.o)
 .bss           0x0000110e        0x2 d:\mspgcc\bin\..\lib\gcc-lib\msp430\3.2.3\..\..\..\..\msp430\lib\libc.a(vsprintf.o)
 .bss           0x00001110        0x2 d:\mspgcc\bin\..\lib\gcc-lib\msp430\3.2.3\..\..\..\..\msp430\lib\libc.a(vuprintf.o)
 .bss           0x00001112        0x0 d:\mspgcc\bin\..\lib\gcc-lib\msp430\3.2.3\..\..\..\..\msp430\lib\libc.a(memchr.o)
 .bss           0x00001112        0x0 d:\mspgcc\bin\..\lib\gcc-lib\msp430\3.2.3\..\..\..\..\msp430\lib\libc.a(isdigit.o)
 .bss           0x00001112        0x0 d:\mspgcc\bin\..\lib\gcc-lib\msp430\3.2.3\..\..\..\..\msp430\lib\libc.a(strlen.o)
 *(SORT(.bss.*))
 *(COMMON)
 COMMON         0x00001112        0x2 build/mcu/os_cpu_c_f2xx.o
                0x00001112                OSISRStkPtr
 COMMON         0x00001114      0x5f6 build/mcu/os_core_f2xx.o
                0x00001114                OSLockNesting
                0x00001115                OSRunning
                0x00001116                OSIdleCtr
                0x0000111a                OSPrioHighRdy
                0x0000111b                OSPrioCur
                0x0000111c                OSTCBList
                0x0000111e                OSTickStepState
                0x00001120                OSTaskStatStk
                0x00001274                OSCtxSwCtr
                0x00001278                OSIdleCtrMax
                0x0000127c                OSTCBFreeList
                0x0000127e                OSCPUUsage
                0x0000127f                OSTaskCtr
                0x00001280                OSQTbl
                0x0000129c                OSTCBHighRdy
                0x0000129e                OSQFreeList
                0x000012a0                OSRdyGrp
                0x000012a2                OSRdyTbl
                0x000012aa                OSEventFreeList
                0x000012ac                OSIntNesting
                0x000012ae                OSTCBCur
                0x000012b0                OSTime
                0x000012b4                OSTaskIdleStk
                0x00001408                OSEventTbl
                0x000014f8                OSTCBTbl
                0x00001684                OSStatRdy
                0x00001686                OSTCBPrioTbl
                0x00001706                OSIdleCtrRun
 COMMON         0x0000170a       0x18 build/mcu/keyboard_f2xx.o
                0x0000170a                index_buf
                0x0000170c                keyboard_buffer
                0x00001720                write_index_buf
                0x00001721                chars_in_buf
 COMMON         0x00001722        0x4 build/mcu/display_f2xx.o
                0x00001722                lcd_shift_addr
                0x00001724                lcd_cursor_addr
 COMMON         0x00001726      0x402 build/mcu/app_f2xx.o
                0x00001726                TaskKeyStk
                0x00001826                last_ch
                0x00001828                TaskLoadStk
                0x00001928                TaskDisplayStk
                0x00001a28                TaskStartStk
 COMMON         0x00001b28        0x6 ../../..//mcu/libfitkit/build\libfitkit_f2xx.a(flash_f2xx.o)
                0x00001b28                CountPage
                0x00001b2a                TypeBufferFlash
                0x00001b2c                AdrBufferFlash
 COMMON         0x00001b2e        0x2 ../../..//mcu/libfitkit/build\libfitkit_f2xx.a(terminal_f2xx.o)
                0x00001b2e                Cmd_Old
                0x00001b2f                Cmd
 COMMON         0x00001b30       0xf1 ../../..//mcu/libfitkit/build\libfitkit_f2xx.a(uart_f2xx.o)
                0x00001b30                BreakFlag
                0x00001b31                TransmitNum
                0x00001b32                ReceiveNum
                0x00001b34                ReceiveBuf
                0x00001bb4                ReceiveIndexRec
                0x00001bb6                TransmitBuf
                0x00001c1a                ErrorFlag
                0x00001c1c                ReceiveIndex
                0x00001c1e                TransmitIndexSend
                0x00001c1f                TransmitIndex
                0x00001c20                PomRS232
 *fill*         0x00001c21        0x1 00
 COMMON         0x00001c22       0x1e ../../..//mcu/libfitkit/build\libfitkit_f2xx.a(cmd_f2xx.o)
                0x00001c22                CMD_Long
                0x00001c26                CMDStr
                0x00001c3f                CMDStrLen
                0x00001c40                PROVIDE (__bss_end, .)
                0x00001c40                _end = .
                0x00000b32                PROVIDE (__bss_size, SIZEOF (.bss))

.noinit         0x00001c40        0x0
                0x00001c40                PROVIDE (__noinit_start, .)
 *(.noinit)
 *(.noinit.*)
 *(COMMON)
                0x00001c40                PROVIDE (__noinit_end, .)
                0x00001c40                _end = .

.vectors        0x0000ffc0       0x40
                0x0000ffc0                PROVIDE (__vectors_start, .)
 *(.vectors*)
 .vectors       0x0000ffc0       0x40 d:\mspgcc\bin\..\lib\gcc-lib\msp430\3.2.3\..\..\..\..\msp430\lib\crt430x2617.o
                0x0000ffc0                InterruptVectors
 *(.vectors*)
                0x00010000                _vectors_end = .

.profiler
 *(.profiler)

.stab           0x00000000     0x1aa0
 *(.stab)
 .stab          0x00000000      0x1b0 d:\mspgcc\bin\..\lib\gcc-lib\msp430\3.2.3\..\..\..\..\msp430\lib\crt430x2617.o
 .stab          0x000001b0      0x480 d:\mspgcc\bin\..\lib\gcc-lib\msp430\3.2.3\..\..\..\..\msp430\lib\libc.a(sprintf.o)
                                0x48c (size before relaxing)
 .stab          0x00000630      0x27c d:\mspgcc\bin\..\lib\gcc-lib\msp430\3.2.3\..\..\..\..\msp430\lib\libc.a(vsprintf.o)
                                0x4ec (size before relaxing)
 .stab          0x000008ac      0xc60 d:\mspgcc\bin\..\lib\gcc-lib\msp430\3.2.3\..\..\..\..\msp430\lib\libc.a(vuprintf.o)
                                0xec4 (size before relaxing)
 .stab          0x0000150c      0x24c d:\mspgcc\bin\..\lib\gcc-lib\msp430\3.2.3\..\..\..\..\msp430\lib\libc.a(memchr.o)
                                0x498 (size before relaxing)
 .stab          0x00001758      0x168 d:\mspgcc\bin\..\lib\gcc-lib\msp430\3.2.3\..\..\..\..\msp430\lib\libc.a(isdigit.o)
                                0x174 (size before relaxing)
 .stab          0x000018c0      0x1e0 d:\mspgcc\bin\..\lib\gcc-lib\msp430\3.2.3\..\..\..\..\msp430\lib\libc.a(strlen.o)
                                0x42c (size before relaxing)

.stabstr        0x00000000      0xca9
 *(.stabstr)
 .stabstr       0x00000000      0xca9 d:\mspgcc\bin\..\lib\gcc-lib\msp430\3.2.3\..\..\..\..\msp430\lib\crt430x2617.o

.stab.excl
 *(.stab.excl)

.stab.exclstr
 *(.stab.exclstr)

.stab.index
 *(.stab.index)

.stab.indexstr
 *(.stab.indexstr)

.comment
 *(.comment)

.debug
 *(.debug)

.line
 *(.line)

.debug_srcinfo
 *(.debug_srcinfo)

.debug_sfnames
 *(.debug_sfnames)

.debug_aranges
 *(.debug_aranges)

.debug_pubnames
 *(.debug_pubnames)

.debug_info
 *(.debug_info)
 *(.gnu.linkonce.wi.*)

.debug_abbrev
 *(.debug_abbrev)

.debug_line
 *(.debug_line)

.debug_frame
 *(.debug_frame)

.debug_str
 *(.debug_str)

.debug_loc
 *(.debug_loc)

.debug_macinfo
 *(.debug_macinfo)
                0x00003100                PROVIDE (__stack, 0x3100)
                0x0000cefe                PROVIDE (__data_start_rom, _etext)
                0x0000cf0c                PROVIDE (__data_end_rom, (_etext + SIZEOF (.data)))
                0x0000cf0c                PROVIDE (__noinit_start_rom, (_etext + SIZEOF (.data)))
                0x0000cf0c                PROVIDE (__noinit_end_rom, ((_etext + SIZEOF (.data)) + SIZEOF (.noinit)))
                0x00000000                PROVIDE (__subdevice_has_heap, 0x0)
OUTPUT(build/ucosii_f2xx.elf elf32-msp430)
