Archive member included because of file (symbol)

../../..//mcu/libfitkit/build\libfitkit_f1xx.a(fpga_f1xx.o)
                              build/mcu/keyboard_f1xx.o (FPGA_SPI_RW_A8_D16)
../../..//mcu/libfitkit/build\libfitkit_f1xx.a(spi_f1xx.o)
                              ../../..//mcu/libfitkit/build\libfitkit_f1xx.a(fpga_f1xx.o) (SPI_write_wait_read)
../../..//mcu/libfitkit/build\libfitkit_f1xx.a(timer_b_f1xx.o)
                              build/mcu/display_f1xx.o (delay_ms)
../../..//mcu/libfitkit/build\libfitkit_f1xx.a(fitkitlib_f1xx.o)
                              ../../..//mcu/libfitkit/build\libfitkit_f1xx.a(fpga_f1xx.o) (delay_cycle)
../../..//mcu/libfitkit/build\libfitkit_f1xx.a(flash_f1xx.o)
                              ../../..//mcu/libfitkit/build\libfitkit_f1xx.a(fitkitlib_f1xx.o) (flash_init)
../../..//mcu/libfitkit/build\libfitkit_f1xx.a(flash_fpga_f1xx.o)
                              ../../..//mcu/libfitkit/build\libfitkit_f1xx.a(fitkitlib_f1xx.o) (FPGAConfig_init)
../../..//mcu/libfitkit/build\libfitkit_f1xx.a(globfun_f1xx.o)
                              ../../..//mcu/libfitkit/build\libfitkit_f1xx.a(flash_f1xx.o) (long2str)
../../..//mcu/libfitkit/build\libfitkit_f1xx.a(terminal_f1xx.o)
                              ../../..//mcu/libfitkit/build\libfitkit_f1xx.a(fitkitlib_f1xx.o) (terminal_init)
../../..//mcu/libfitkit/build\libfitkit_f1xx.a(uart_f1xx.o)
                              ../../..//mcu/libfitkit/build\libfitkit_f1xx.a(terminal_f1xx.o) (serial_init)
../../..//mcu/libfitkit/build\libfitkit_f1xx.a(filetransfer_f1xx.o)
                              ../../..//mcu/libfitkit/build\libfitkit_f1xx.a(fitkitlib_f1xx.o) (SPI_WriteFile)
../../..//mcu/libfitkit/build\libfitkit_f1xx.a(cmd_f1xx.o)
                              ../../..//mcu/libfitkit/build\libfitkit_f1xx.a(terminal_f1xx.o) (term_cmd_clear)
d:\mspgcc\bin\..\lib\gcc-lib\msp430\3.2.3\libgcc.a(__stop_progExec__.o)
                              build/mcu/app_f1xx.o (__stop_progExec__)
d:\mspgcc\bin\..\lib\gcc-lib\msp430\3.2.3\libgcc.a(_mulsi3hw.o)
                              build/mcu/os_task_f1xx.o (__umulsi3hw)
d:\mspgcc\bin\..\lib\gcc-lib\msp430\3.2.3\libgcc.a(_udivmodsi4.o)
                              build/mcu/os_time_f1xx.o (__udivmodsi4)
d:\mspgcc\bin\..\lib\gcc-lib\msp430\3.2.3\libgcc.a(_divmodsi4.o)
                              ../../..//mcu/libfitkit/build\libfitkit_f1xx.a(flash_f1xx.o) (__divmodsi4)
d:\mspgcc\bin\..\lib\gcc-lib\msp430\3.2.3\libgcc.a(_reset_vector__.o)
                              d:\mspgcc\bin\..\lib\gcc-lib\msp430\3.2.3\..\..\..\..\msp430\lib\crt430x168.o (_reset_vector__)
d:\mspgcc\bin\..\lib\gcc-lib\msp430\3.2.3\libgcc.a(__low_level_init.o)
                              d:\mspgcc\bin\..\lib\gcc-lib\msp430\3.2.3\libgcc.a(_reset_vector__.o) (__low_level_init)
d:\mspgcc\bin\..\lib\gcc-lib\msp430\3.2.3\libgcc.a(_copy_data.o)
                              d:\mspgcc\bin\..\lib\gcc-lib\msp430\3.2.3\libgcc.a(_reset_vector__.o) (__do_copy_data)
d:\mspgcc\bin\..\lib\gcc-lib\msp430\3.2.3\libgcc.a(_clear_bss.o)
                              d:\mspgcc\bin\..\lib\gcc-lib\msp430\3.2.3\libgcc.a(_reset_vector__.o) (__do_clear_bss)
d:\mspgcc\bin\..\lib\gcc-lib\msp430\3.2.3\libgcc.a(__jump_to_main.o)
                              d:\mspgcc\bin\..\lib\gcc-lib\msp430\3.2.3\libgcc.a(_reset_vector__.o) (__jump_to_main)
d:\mspgcc\bin\..\lib\gcc-lib\msp430\3.2.3\..\..\..\..\msp430\lib\libc.a(isdigit.o)
                              ../../..//mcu/libfitkit/build\libfitkit_f1xx.a(globfun_f1xx.o) (isdigit)
d:\mspgcc\bin\..\lib\gcc-lib\msp430\3.2.3\..\..\..\..\msp430\lib\libc.a(strlen.o)
                              build/mcu/display_f1xx.o (strlen)

Allocating common symbols
Common symbol       size              file

BreakFlag           0x1               ../../..//mcu/libfitkit/build\libfitkit_f1xx.a(uart_f1xx.o)
TransmitNum         0x1               ../../..//mcu/libfitkit/build\libfitkit_f1xx.a(uart_f1xx.o)
index_buf           0x1               build/mcu/keyboard_f1xx.o
Cmd_Old             0x1               ../../..//mcu/libfitkit/build\libfitkit_f1xx.a(terminal_f1xx.o)
OSLockNesting       0x1               build/mcu/os_core_f1xx.o
OSRunning           0x1               build/mcu/os_core_f1xx.o
OSIdleCtr           0x4               build/mcu/os_core_f1xx.o
OSPrioHighRdy       0x1               build/mcu/os_core_f1xx.o
lcd_shift_addr      0x2               build/mcu/display_f1xx.o
ReceiveNum          0x2               ../../..//mcu/libfitkit/build\libfitkit_f1xx.a(uart_f1xx.o)
lcd_cursor_addr     0x2               build/mcu/display_f1xx.o
OSPrioCur           0x1               build/mcu/os_core_f1xx.o
OSTCBList           0x2               build/mcu/os_core_f1xx.o
OSTickStepState     0x1               build/mcu/os_core_f1xx.o
CMD_Long            0x4               ../../..//mcu/libfitkit/build\libfitkit_f1xx.a(cmd_f1xx.o)
OSCtxSwCtr          0x4               build/mcu/os_core_f1xx.o
keyboard_buffer     0x14              build/mcu/keyboard_f1xx.o
CountPage           0x2               ../../..//mcu/libfitkit/build\libfitkit_f1xx.a(flash_f1xx.o)
ReceiveBuf          0x7f              ../../..//mcu/libfitkit/build\libfitkit_f1xx.a(uart_f1xx.o)
OSTCBFreeList       0x2               build/mcu/os_core_f1xx.o
ReceiveIndexRec     0x2               ../../..//mcu/libfitkit/build\libfitkit_f1xx.a(uart_f1xx.o)
TransmitBuf         0x64              ../../..//mcu/libfitkit/build\libfitkit_f1xx.a(uart_f1xx.o)
ErrorFlag           0x1               ../../..//mcu/libfitkit/build\libfitkit_f1xx.a(uart_f1xx.o)
OSTaskCtr           0x1               build/mcu/os_core_f1xx.o
ReceiveIndex        0x2               ../../..//mcu/libfitkit/build\libfitkit_f1xx.a(uart_f1xx.o)
TaskRedLEDStk       0x100             build/mcu/app_f1xx.o
OSQTbl              0x1c              build/mcu/os_core_f1xx.o
OSTCBHighRdy        0x2               build/mcu/os_core_f1xx.o
OSQFreeList         0x2               build/mcu/os_core_f1xx.o
OSRdyGrp            0x1               build/mcu/os_core_f1xx.o
TransmitIndexSend   0x1               ../../..//mcu/libfitkit/build\libfitkit_f1xx.a(uart_f1xx.o)
OSRdyTbl            0x8               build/mcu/os_core_f1xx.o
TypeBufferFlash     0x1               ../../..//mcu/libfitkit/build\libfitkit_f1xx.a(flash_f1xx.o)
TransmitIndex       0x1               ../../..//mcu/libfitkit/build\libfitkit_f1xx.a(uart_f1xx.o)
PomRS232            0x1               ../../..//mcu/libfitkit/build\libfitkit_f1xx.a(uart_f1xx.o)
OSEventFreeList     0x2               build/mcu/os_core_f1xx.o
AdrBufferFlash      0x2               ../../..//mcu/libfitkit/build\libfitkit_f1xx.a(flash_f1xx.o)
TaskGreenLEDStk     0x100             build/mcu/app_f1xx.o
CMDStr              0x19              ../../..//mcu/libfitkit/build\libfitkit_f1xx.a(cmd_f1xx.o)
OSIntNesting        0x1               build/mcu/os_core_f1xx.o
Cmd                 0x1               ../../..//mcu/libfitkit/build\libfitkit_f1xx.a(terminal_f1xx.o)
write_index_buf     0x1               build/mcu/keyboard_f1xx.o
OSTCBCur            0x2               build/mcu/os_core_f1xx.o
chars_in_buf        0x1               build/mcu/keyboard_f1xx.o
OSTime              0x4               build/mcu/os_core_f1xx.o
OSTaskIdleStk       0x154             build/mcu/os_core_f1xx.o
OSEventTbl          0xf0              build/mcu/os_core_f1xx.o
OSTCBTbl            0x14a             build/mcu/os_core_f1xx.o
OSTCBPrioTbl        0x80              build/mcu/os_core_f1xx.o
OSISRStkPtr         0x2               build/mcu/os_cpu_c_f1xx.o
CMDStrLen           0x1               ../../..//mcu/libfitkit/build\libfitkit_f1xx.a(cmd_f1xx.o)

Memory Configuration

Name             Origin             Length             Attributes
text             0x00004000         0x0000bfe0         xr
data             0x00000200         0x00000800         xrw
vectors          0x0000ffe0         0x00000020         rw
bootloader       0x00000c00         0x00000400         xr
infomem          0x00001000         0x00000100         xr
infomemnobits    0x00001000         0x00000100         xr
*default*        0x00000000         0xffffffff

Linker script and memory map

LOAD d:\mspgcc\bin\..\lib\gcc-lib\msp430\3.2.3\..\..\..\..\msp430\lib\crt430x168.o
LOAD build/mcu/os_cpu_c_f1xx.o
LOAD build/mcu/os_cpu_a_f1xx.o
LOAD build/mcu/os_core_f1xx.o
LOAD build/mcu/os_flag_f1xx.o
LOAD build/mcu/os_mbox_f1xx.o
LOAD build/mcu/os_mem_f1xx.o
LOAD build/mcu/os_mutex_f1xx.o
LOAD build/mcu/os_q_f1xx.o
LOAD build/mcu/os_sem_f1xx.o
LOAD build/mcu/os_task_f1xx.o
LOAD build/mcu/os_time_f1xx.o
LOAD build/mcu/os_tmr_f1xx.o
LOAD build/mcu/keyboard_f1xx.o
LOAD build/mcu/display_f1xx.o
LOAD build/mcu/app_f1xx.o
LOAD ../../..//mcu/libfitkit/build\libfitkit_f1xx.a
LOAD d:\mspgcc\bin\..\lib\gcc-lib\msp430\3.2.3\libgcc.a
LOAD d:\mspgcc\bin\..\lib\gcc-lib\msp430\3.2.3\..\..\..\..\msp430\lib\libc.a
LOAD d:\mspgcc\bin\..\lib\gcc-lib\msp430\3.2.3\libgcc.a

.hash
 *(.hash)

.dynsym
 *(.dynsym)

.dynstr
 *(.dynstr)

.gnu.version
 *(.gnu.version)

.gnu.version_d
 *(.gnu.version_d)

.gnu.version_r
 *(.gnu.version_r)

.rel.init
 *(.rel.init)

.rela.init
 *(.rela.init)

.rel.text
 *(.rel.text)
 *(.rel.text.*)
 *(.rel.gnu.linkonce.t*)

.rela.text
 *(.rela.text)
 *(.rela.text.*)
 *(.rela.gnu.linkonce.t*)

.rel.fini
 *(.rel.fini)

.rela.fini
 *(.rela.fini)

.rel.rodata
 *(.rel.rodata)
 *(.rel.rodata.*)
 *(.rel.gnu.linkonce.r*)

.rela.rodata
 *(.rela.rodata)
 *(.rela.rodata.*)
 *(.rela.gnu.linkonce.r*)

.rel.data
 *(.rel.data)
 *(.rel.data.*)
 *(.rel.gnu.linkonce.d*)

.rela.data
 *(.rela.data)
 *(.rela.data.*)
 *(.rela.gnu.linkonce.d*)

.rel.ctors
 *(.rel.ctors)

.rela.ctors
 *(.rela.ctors)

.rel.dtors
 *(.rel.dtors)

.rela.dtors
 *(.rela.dtors)

.rel.got
 *(.rel.got)

.rela.got
 *(.rela.got)

.rel.bss
 *(.rel.bss)

.rela.bss
 *(.rela.bss)

.rel.plt
 *(.rel.plt)

.rela.plt
 *(.rela.plt)

.text           0x00004000     0x916e
                0x00004000                . = ALIGN (0x2)
 *(.init)
 *(.init)
 *(.init0)
 .init0         0x00004000        0x0 d:\mspgcc\bin\..\lib\gcc-lib\msp430\3.2.3\libgcc.a(_reset_vector__.o)
                0x00004000                _reset_vector__
 *(.init0)
 *(.init1)
 *(.init1)
 *(.init2)
 *(.init2)
 *(.init3)
 .init3         0x00004000        0x6 d:\mspgcc\bin\..\lib\gcc-lib\msp430\3.2.3\libgcc.a(__low_level_init.o)
                0x00004000                __low_level_init
 *(.init3)
 *(.init4)
 .init4         0x00004006       0x12 d:\mspgcc\bin\..\lib\gcc-lib\msp430\3.2.3\libgcc.a(_copy_data.o)
                0x00004006                __do_copy_data
 .init4         0x00004018       0x10 d:\mspgcc\bin\..\lib\gcc-lib\msp430\3.2.3\libgcc.a(_clear_bss.o)
                0x00004018                __do_clear_bss
 *(.init4)
 *(.init5)
 *(.init5)
 *(.init6)
 *(.init6)
 *(.init7)
 *(.init7)
 *(.init8)
 *(.init8)
 *(.init9)
 .init9         0x00004028        0x4 d:\mspgcc\bin\..\lib\gcc-lib\msp430\3.2.3\libgcc.a(__jump_to_main.o)
                0x00004028                __jump_to_main
 *(.init9)
                0x0000402c                __ctors_start = .
 *(.ctors)
 *(.ctors)
                0x0000402c                __ctors_end = .
                0x0000402c                __dtors_start = .
 *(.dtors)
 *(.dtors)
                0x0000402c                __dtors_end = .
                0x0000402c                . = ALIGN (0x2)
 *(.text)
 .text          0x0000402c        0x6 d:\mspgcc\bin\..\lib\gcc-lib\msp430\3.2.3\..\..\..\..\msp430\lib\crt430x168.o
                0x0000402c                _unexpected_1_
                0x0000402c                vector_ffe0
                0x0000402c                vector_ffec
                0x0000402c                vector_fffc
                0x0000402c                vector_ffe4
                0x0000402c                vector_ffe2
                0x0000402c                vector_ffe8
                0x00004030                _unexpected_
                0x0000402c                vector_fffa
                0x0000402c                vector_ffee
                0x0000402c                vector_fff8
                0x0000402c                vector_ffe6
                0x0000402c                vector_fff6
                0x0000402c                vector_ffea
 .text          0x00004032      0x17e build/mcu/os_cpu_c_f1xx.o
                0x00004046                OSTaskCreateHook
                0x00004084                OSTaskStatHook
                0x00004032                OSInitHookBegin
                0x00004060                OSTaskDelHook
                0x000041a6                OSTimeTickHook
                0x0000418c                OSTCBInitHook
                0x0000408e                OSTaskStkInit
                0x0000403c                OSInitHookEnd
                0x00004182                OSTaskSwHook
                0x0000407a                OSTaskIdleHook
 .text          0x000041b0      0x120 build/mcu/os_cpu_a_f1xx.o
                0x000041b0                OSStartHighRdy
                0x000041dc                OSCtxSw
                0x0000422e                OSIntCtxSw
                0x0000425e                vector_fff4
                0x000042cc                OSCPURestoreSR
                0x000042c6                OSCPUSaveSR
 .text          0x000042d0      0xe52 build/mcu/os_core_f1xx.o
                0x0000458a                OSIntEnter
                0x00004ef4                OS_TCBInit
                0x000049a2                OS_EventTaskRemove
                0x000043d0                OSEventNameGet
                0x000045a4                OSIntExit
                0x00004cc2                OS_MemCopy
                0x00004d0a                OS_Sched
                0x00004c8c                OS_MemClr
                0x0000481e                OS_EventTaskRdy
                0x00004658                OSSchedUnlock
                0x00004814                OS_Dummy
                0x00004498                OSEventNameSet
                0x000042d0                OSUnMapTbl
                0x000048fa                OS_EventTaskWait
                0x00004e70                OS_TaskStatStkChk
                0x000046b4                OSStart
                0x000046e6                OSTimeTick
                0x0000461a                OSSchedLock
                0x00004da8                OS_StrCopy
                0x00004560                OSInit
                0x00004dfe                OS_StrLen
                0x00004806                OSVersion
                0x00004a2c                OS_EventWaitListInit
                0x00004e34                OS_TaskIdle
 .text          0x00005122        0x0 build/mcu/os_flag_f1xx.o
 .text          0x00005122      0x74c build/mcu/os_mbox_f1xx.o
                0x000057b4                OSMboxQuery
                0x0000562e                OSMboxPost
                0x0000553c                OSMboxPendAbort
                0x00005184                OSMboxCreate
                0x000053a4                OSMboxPend
                0x00005122                OSMboxAccept
                0x000056d8                OSMboxPostOpt
                0x00005218                OSMboxDel
 .text          0x0000586e        0x0 build/mcu/os_mem_f1xx.o
 .text          0x0000586e      0xb2e build/mcu/os_mutex_f1xx.o
                0x0000586e                OSMutexAccept
                0x00005cae                OSMutexPend
                0x00005aac                OSMutexDel
                0x0000597e                OSMutexCreate
                0x000061b4                OSMutexQuery
                0x00006070                OSMutexPost
 .text          0x0000639c      0xb5a build/mcu/os_q_f1xx.o
                0x0000674c                OSQFlush
                0x0000639c                OSQAccept
                0x00006a86                OSQPost
                0x000067c8                OSQPend
                0x00006b66                OSQPostFront
                0x00006474                OSQCreate
                0x00006c4a                OSQPostOpt
                0x00006590                OSQDel
                0x00006994                OSQPendAbort
                0x00006e8e                OS_QInit
                0x00006d96                OSQQuery
 .text          0x00006ef6      0x6c2 build/mcu/os_sem_f1xx.o
                0x00007184                OSSemPend
                0x00006ef6                OSSemAccept
                0x000072d6                OSSemPendAbort
                0x000073ca                OSSemPost
                0x00006f60                OSSemCreate
                0x00007464                OSSemQuery
                0x00007520                OSSemSet
                0x00006ff6                OSSemDel
 .text          0x000075b8      0xe52 build/mcu/os_task_f1xx.o
                0x00007950                OSTaskCreateExt
                0x00007850                OSTaskCreate
                0x000075b8                OSTaskChangePrio
                0x00007a9a                OSTaskDel
                0x00007e4a                OSTaskNameSet
                0x00007c70                OSTaskDelReq
                0x00007f5a                OSTaskResume
                0x00007d38                OSTaskNameGet
                0x00008062                OSTaskStkChk
                0x000082f8                OSTaskQuery
                0x000083b2                OS_TaskStkClr
                0x000081dc                OSTaskSuspend
 .text          0x0000840a      0x3a4 build/mcu/os_time_f1xx.o
                0x0000876e                OSTimeSet
                0x0000840a                OSTimeDly
                0x00008494                OSTimeDlyHMSM
                0x00008616                OSTimeDlyResume
                0x0000872e                OSTimeGet
 .text          0x000087ae        0x0 build/mcu/os_tmr_f1xx.o
 .text          0x000087ae      0x1aa build/mcu/keyboard_f1xx.o
                0x000087f0                keyboard_handle_interrupt
                0x0000883e                key_decode
                0x000087ae                keyboard_get_char
 .text          0x00008958      0x280 build/mcu/display_f1xx.o
                0x000089b4                LCD_clear
                0x00008ba8                LCD_rotate
                0x000089e6                LCD_init
                0x00008b22                LCD_write_string
                0x00008a30                LCD_load_char
                0x00008a12                LCD_char2dis
                0x00008aa0                LCD_append_char
                0x00008b46                LCD_append_string
                0x00008958                LCD_send_cmd
 .text          0x00008bd8      0x166 build/mcu/app_f1xx.o
                0x00008c0e                green_task
                0x00008bec                decode_user_cmd
                0x00008be2                print_user_help
                0x00008c8a                my_initialize_hardware
                0x00008ce6                main
                0x00008c40                red_task
                0x00008bd8                fpga_initialized
 .text          0x00008d3e      0x286 ../../..//mcu/libfitkit/build\libfitkit_f1xx.a(fpga_f1xx.o)
                0x00008d6a                FPGA_SPI_RW_A8_D8
                0x00008dba                FPGA_SPI_RW_A8_D16
                0x00008ece                FPGA_SPI_RW_AN_DN
                0x00008d3e                fpga_init
                0x00008e30                FPGA_SPI_RW_A8_DN
                0x00008d50                FPGA_reset
 .text          0x00008fc4       0xbe ../../..//mcu/libfitkit/build\libfitkit_f1xx.a(spi_f1xx.o)
                0x00009006                SPI_Close
                0x00009026                SPI_read_wait_write
                0x00009056                SPI_write_wait_read
                0x00008fc4                SPI_Init
 .text          0x00009082       0xdc ../../..//mcu/libfitkit/build\libfitkit_f1xx.a(timer_b_f1xx.o)
                0x00009082                timerb_init
                0x00009098                delay_ms
 .text          0x0000915e      0x406 ../../..//mcu/libfitkit/build\libfitkit_f1xx.a(fitkitlib_f1xx.o)
                0x0000918a                clock_system_init
                0x0000915e                delay_cycle
                0x000091cc                smclk_stop
                0x00009250                fpga_configure_from_flash
                0x00009444                initialize_hardware_
                0x00009554                initialize_hardware
                0x0000934e                fpga_configure_from_mcu
 .text          0x00009564     0x1448 ../../..//mcu/libfitkit/build\libfitkit_f1xx.a(flash_f1xx.o)
                0x0000a63a                FLASH_Dump_Page
                0x0000a526                FLASH_EraseAll
                0x00009eba                FLASH_ReadDataBuffer
                0x0000a47a                FLASH_ErasePage
                0x0000995e                FLASH_print_status
                0x0000a5de                FLASH_Dump_Block
                0x0000a6ea                FLASH_Dump_Adr
                0x0000965c                flash_init
                0x0000a4d0                FLASH_EraseBlock
                0x0000a0a8                FLASH_ReadDataA
                0x00009e2a                FLASH_WriteDataBuffer
                0x00009758                FLASH_availablepages
                0x0000a03e                FLASH_isPageBlank
                0x00009838                FLASH_IsReady
                0x000097c6                FLASH_blocks
                0x00009564                FLASH_PageToAddr
                0x00009d5e                FLASH_WriteToBuffer
                0x0000a3ac                FLASH_WriteByte
                0x00009fd0                FLASH_ReadData_Finalize
                0x0000a1a2                FLASH_ReadMemoryBuffer
                0x000097e0                FLASH_size
                0x0000a58e                FLASH_Dump_All
                0x00009596                flash_init_
                0x0000a12c                FLASH_WriteBufferMemory
                0x00009f56                FLASH_ReadData_Initialize
                0x00009fde                FLASH_ReadData
                0x0000a450                FLASH_EraseByte
                0x00009806                FLASH_ReadStatus
                0x0000a226                FLASH_ProgFPGA
 .text          0x0000a9ac      0x418 ../../..//mcu/libfitkit/build\libfitkit_f1xx.a(flash_fpga_f1xx.o)
                0x0000a9ac                delay_cycle_
                0x0000ab58                FPGAConfig_finalize
                0x0000abaa                FPGAConfig_detect_fpga
                0x0000aa72                FPGAConfig_initialize
                0x0000a9d8                FPGAConfig_init
 .text          0x0000adc4      0x706 ../../..//mcu/libfitkit/build\libfitkit_f1xx.a(globfun_f1xx.o)
                0x0000adc4                chr2bin
                0x0000aed6                chr2digit
                0x0000ae7e                chr2hex
                0x0000b278                strrev
                0x0000b008                str2long
                0x0000b0d8                str2long_2x
                0x0000af52                hex2chr
                0x0000ae32                digit2chr
                0x0000b2e4                strupper
                0x0000b37a                long2str
                0x0000afa6                rchr
 .text          0x0000b4ca      0x926 ../../..//mcu/libfitkit/build\libfitkit_f1xx.a(terminal_f1xx.o)
                0x0000b4ee                terminal_init
                0x0000b7fa                terminal_idle_cb
                0x0000bde0                terminal_idle
 .text          0x0000bdf0      0x3fc ../../..//mcu/libfitkit/build\libfitkit_f1xx.a(uart_f1xx.o)
                0x0000bf3e                term_send_str
                0x0000c142                TxintrRS232
                0x0000bf7c                term_send_num
                0x0000bfbe                term_send_hex
                0x0000c184                RxintrRS232
                0x0000c142                vector_fff0
                0x0000c042                term_rcv_block
                0x0000bede                term_send_char_idle
                0x0000be5e                serial_close
                0x0000c0e0                term_rcv_char_t
                0x0000c184                vector_fff2
                0x0000bdf0                serial_init
                0x0000bf06                term_send_char_hex
                0x0000c000                term_rcv_char
                0x0000be98                term_send_char
 .text          0x0000c1ec      0x6cc ../../..//mcu/libfitkit/build\libfitkit_f1xx.a(filetransfer_f1xx.o)
                0x0000c2ae                send_header
                0x0000c7be                SPI_WriteFile
                0x0000c6fc                sendPageSPI
                0x0000c41c                writePageToFlash
                0x0000c85a                FLASH_WriteFile
                0x0000c1ec                serial_rx_timeout
                0x0000c5c2                transmittFile
                0x0000c248                serial_tx_buf
 .text          0x0000c8b8      0x7f2 ../../..//mcu/libfitkit/build\libfitkit_f1xx.a(cmd_f1xx.o)
                0x0000c992                term_cmd_decode
                0x0000c8c6                term_cmd_read
                0x0000c8b8                term_cmd_clear
 .text          0x0000d0aa        0x0 d:\mspgcc\bin\..\lib\gcc-lib\msp430\3.2.3\libgcc.a(__stop_progExec__.o)
 .text          0x0000d0aa        0x0 d:\mspgcc\bin\..\lib\gcc-lib\msp430\3.2.3\libgcc.a(_mulsi3hw.o)
 .text          0x0000d0aa        0x0 d:\mspgcc\bin\..\lib\gcc-lib\msp430\3.2.3\libgcc.a(_udivmodsi4.o)
 .text          0x0000d0aa        0x0 d:\mspgcc\bin\..\lib\gcc-lib\msp430\3.2.3\libgcc.a(_divmodsi4.o)
 .text          0x0000d0aa        0x0 d:\mspgcc\bin\..\lib\gcc-lib\msp430\3.2.3\libgcc.a(_reset_vector__.o)
 .text          0x0000d0aa        0x0 d:\mspgcc\bin\..\lib\gcc-lib\msp430\3.2.3\libgcc.a(__low_level_init.o)
 .text          0x0000d0aa        0x0 d:\mspgcc\bin\..\lib\gcc-lib\msp430\3.2.3\libgcc.a(_copy_data.o)
 .text          0x0000d0aa        0x0 d:\mspgcc\bin\..\lib\gcc-lib\msp430\3.2.3\libgcc.a(_clear_bss.o)
 .text          0x0000d0aa        0x0 d:\mspgcc\bin\..\lib\gcc-lib\msp430\3.2.3\libgcc.a(__jump_to_main.o)
 .text          0x0000d0aa       0x12 d:\mspgcc\bin\..\lib\gcc-lib\msp430\3.2.3\..\..\..\..\msp430\lib\libc.a(isdigit.o)
                0x0000d0aa                isdigit
 .text          0x0000d0bc       0x14 d:\mspgcc\bin\..\lib\gcc-lib\msp430\3.2.3\..\..\..\..\msp430\lib\libc.a(strlen.o)
                0x0000d0bc                strlen
                0x0000d0d0                . = ALIGN (0x2)
 *(.text.*)
 .text.libgcc   0x0000d0d0        0x0 d:\mspgcc\bin\..\lib\gcc-lib\msp430\3.2.3\libgcc.a(__stop_progExec__.o)
 .text.libgcc   0x0000d0d0       0x28 d:\mspgcc\bin\..\lib\gcc-lib\msp430\3.2.3\libgcc.a(_mulsi3hw.o)
                0x0000d0d0                __umulsi3hw
 .text.libgcc   0x0000d0f8       0x2a d:\mspgcc\bin\..\lib\gcc-lib\msp430\3.2.3\libgcc.a(_udivmodsi4.o)
                0x0000d0f8                __udivmodsi4
 .text.libgcc   0x0000d122       0x4a d:\mspgcc\bin\..\lib\gcc-lib\msp430\3.2.3\libgcc.a(_divmodsi4.o)
                0x0000d122                __divmodsi4
 .text.libgcc   0x0000d16c        0x0 d:\mspgcc\bin\..\lib\gcc-lib\msp430\3.2.3\libgcc.a(_reset_vector__.o)
 .text.libgcc   0x0000d16c        0x0 d:\mspgcc\bin\..\lib\gcc-lib\msp430\3.2.3\libgcc.a(__low_level_init.o)
 .text.libgcc   0x0000d16c        0x0 d:\mspgcc\bin\..\lib\gcc-lib\msp430\3.2.3\libgcc.a(_copy_data.o)
 .text.libgcc   0x0000d16c        0x0 d:\mspgcc\bin\..\lib\gcc-lib\msp430\3.2.3\libgcc.a(_clear_bss.o)
 .text.libgcc   0x0000d16c        0x0 d:\mspgcc\bin\..\lib\gcc-lib\msp430\3.2.3\libgcc.a(__jump_to_main.o)
                0x0000d16c                . = ALIGN (0x2)
 *(.fini9)
 .fini9         0x0000d16c        0x0 d:\mspgcc\bin\..\lib\gcc-lib\msp430\3.2.3\libgcc.a(__stop_progExec__.o)
                0x0000d16c                __stop_progExec__
 *(.fini9)
 *(.fini8)
 *(.fini8)
 *(.fini7)
 *(.fini7)
 *(.fini6)
 *(.fini6)
 *(.fini5)
 *(.fini5)
 *(.fini4)
 *(.fini4)
 *(.fini3)
 *(.fini3)
 *(.fini2)
 *(.fini2)
 *(.fini1)
 *(.fini1)
 *(.fini0)
 .fini0         0x0000d16c        0x2 d:\mspgcc\bin\..\lib\gcc-lib\msp430\3.2.3\libgcc.a(__stop_progExec__.o)
 *(.fini0)
 *(.fini)
 *(.fini)
                0x0000d16e                _etext = .

.data           0x00000200        0x6 load address 0x0000d16e
                0x00000200                PROVIDE (__data_start, .)
                0x00000200                . = ALIGN (0x2)
 *(.data)
 .data          0x00000200        0x0 d:\mspgcc\bin\..\lib\gcc-lib\msp430\3.2.3\..\..\..\..\msp430\lib\crt430x168.o
 .data          0x00000200        0x0 build/mcu/os_cpu_c_f1xx.o
 .data          0x00000200        0x0 build/mcu/os_cpu_a_f1xx.o
 .data          0x00000200        0x0 build/mcu/os_core_f1xx.o
 .data          0x00000200        0x0 build/mcu/os_flag_f1xx.o
 .data          0x00000200        0x0 build/mcu/os_mbox_f1xx.o
 .data          0x00000200        0x0 build/mcu/os_mem_f1xx.o
 .data          0x00000200        0x0 build/mcu/os_mutex_f1xx.o
 .data          0x00000200        0x0 build/mcu/os_q_f1xx.o
 .data          0x00000200        0x0 build/mcu/os_sem_f1xx.o
 .data          0x00000200        0x0 build/mcu/os_task_f1xx.o
 .data          0x00000200        0x0 build/mcu/os_time_f1xx.o
 .data          0x00000200        0x0 build/mcu/os_tmr_f1xx.o
 .data          0x00000200        0x0 build/mcu/keyboard_f1xx.o
 .data          0x00000200        0x0 build/mcu/display_f1xx.o
 .data          0x00000200        0x0 build/mcu/app_f1xx.o
 .data          0x00000200        0x0 ../../..//mcu/libfitkit/build\libfitkit_f1xx.a(fpga_f1xx.o)
 .data          0x00000200        0x0 ../../..//mcu/libfitkit/build\libfitkit_f1xx.a(spi_f1xx.o)
 .data          0x00000200        0x0 ../../..//mcu/libfitkit/build\libfitkit_f1xx.a(timer_b_f1xx.o)
 .data          0x00000200        0x4 ../../..//mcu/libfitkit/build\libfitkit_f1xx.a(fitkitlib_f1xx.o)
                0x00000200                FPGA_config_length
 .data          0x00000204        0x2 ../../..//mcu/libfitkit/build\libfitkit_f1xx.a(flash_f1xx.o)
                0x00000204                CNT_PAGES
 .data          0x00000206        0x0 ../../..//mcu/libfitkit/build\libfitkit_f1xx.a(flash_fpga_f1xx.o)
 .data          0x00000206        0x0 ../../..//mcu/libfitkit/build\libfitkit_f1xx.a(globfun_f1xx.o)
 .data          0x00000206        0x0 ../../..//mcu/libfitkit/build\libfitkit_f1xx.a(terminal_f1xx.o)
 .data          0x00000206        0x0 ../../..//mcu/libfitkit/build\libfitkit_f1xx.a(uart_f1xx.o)
 .data          0x00000206        0x0 ../../..//mcu/libfitkit/build\libfitkit_f1xx.a(filetransfer_f1xx.o)
 .data          0x00000206        0x0 ../../..//mcu/libfitkit/build\libfitkit_f1xx.a(cmd_f1xx.o)
 .data          0x00000206        0x0 d:\mspgcc\bin\..\lib\gcc-lib\msp430\3.2.3\libgcc.a(__stop_progExec__.o)
 .data          0x00000206        0x0 d:\mspgcc\bin\..\lib\gcc-lib\msp430\3.2.3\libgcc.a(_mulsi3hw.o)
 .data          0x00000206        0x0 d:\mspgcc\bin\..\lib\gcc-lib\msp430\3.2.3\libgcc.a(_udivmodsi4.o)
 .data          0x00000206        0x0 d:\mspgcc\bin\..\lib\gcc-lib\msp430\3.2.3\libgcc.a(_divmodsi4.o)
 .data          0x00000206        0x0 d:\mspgcc\bin\..\lib\gcc-lib\msp430\3.2.3\libgcc.a(_reset_vector__.o)
 .data          0x00000206        0x0 d:\mspgcc\bin\..\lib\gcc-lib\msp430\3.2.3\libgcc.a(__low_level_init.o)
 .data          0x00000206        0x0 d:\mspgcc\bin\..\lib\gcc-lib\msp430\3.2.3\libgcc.a(_copy_data.o)
 .data          0x00000206        0x0 d:\mspgcc\bin\..\lib\gcc-lib\msp430\3.2.3\libgcc.a(_clear_bss.o)
 .data          0x00000206        0x0 d:\mspgcc\bin\..\lib\gcc-lib\msp430\3.2.3\libgcc.a(__jump_to_main.o)
 .data          0x00000206        0x0 d:\mspgcc\bin\..\lib\gcc-lib\msp430\3.2.3\..\..\..\..\msp430\lib\libc.a(isdigit.o)
 .data          0x00000206        0x0 d:\mspgcc\bin\..\lib\gcc-lib\msp430\3.2.3\..\..\..\..\msp430\lib\libc.a(strlen.o)
 *(SORT(.data.*))
                0x00000206                . = ALIGN (0x2)
 *(.gnu.linkonce.d*)
                0x00000206                . = ALIGN (0x2)
                0x00000206                _edata = .
                0x0000d16e                PROVIDE (__data_load_start, LOADADDR (.data))
                0x00000006                PROVIDE (__data_size, SIZEOF (.data))

.bootloader     0x00000c00        0x0
                0x00000c00                PROVIDE (__boot_start, .)
 *(.bootloader)
                0x00000c00                . = ALIGN (0x2)
 *(.bootloader.*)

.infomem        0x00001000        0x0
 *(.infomem)
                0x00001000                . = ALIGN (0x2)
 *(.infomem.*)

.infomemnobits  0x00001000        0x0
 *(.infomemnobits)
                0x00001000                . = ALIGN (0x2)
 *(.infomemnobits.*)

.bss            0x00000206      0x78c
                0x00000206                PROVIDE (__bss_start, .)
 *(.bss)
 .bss           0x00000206        0x0 d:\mspgcc\bin\..\lib\gcc-lib\msp430\3.2.3\..\..\..\..\msp430\lib\crt430x168.o
 .bss           0x00000206        0x0 build/mcu/os_cpu_c_f1xx.o
 .bss           0x00000206        0x0 build/mcu/os_cpu_a_f1xx.o
 .bss           0x00000206        0x0 build/mcu/os_core_f1xx.o
 .bss           0x00000206        0x0 build/mcu/os_flag_f1xx.o
 .bss           0x00000206        0x0 build/mcu/os_mbox_f1xx.o
 .bss           0x00000206        0x0 build/mcu/os_mem_f1xx.o
 .bss           0x00000206        0x0 build/mcu/os_mutex_f1xx.o
 .bss           0x00000206        0x0 build/mcu/os_q_f1xx.o
 .bss           0x00000206        0x0 build/mcu/os_sem_f1xx.o
 .bss           0x00000206        0x0 build/mcu/os_task_f1xx.o
 .bss           0x00000206        0x0 build/mcu/os_time_f1xx.o
 .bss           0x00000206        0x0 build/mcu/os_tmr_f1xx.o
 .bss           0x00000206        0x0 build/mcu/keyboard_f1xx.o
 .bss           0x00000206        0x0 build/mcu/display_f1xx.o
 .bss           0x00000206        0x0 build/mcu/app_f1xx.o
 .bss           0x00000206        0x0 ../../..//mcu/libfitkit/build\libfitkit_f1xx.a(fpga_f1xx.o)
 .bss           0x00000206        0x0 ../../..//mcu/libfitkit/build\libfitkit_f1xx.a(spi_f1xx.o)
 .bss           0x00000206        0x0 ../../..//mcu/libfitkit/build\libfitkit_f1xx.a(timer_b_f1xx.o)
 .bss           0x00000206        0x0 ../../..//mcu/libfitkit/build\libfitkit_f1xx.a(fitkitlib_f1xx.o)
 .bss           0x00000206        0x0 ../../..//mcu/libfitkit/build\libfitkit_f1xx.a(flash_f1xx.o)
 .bss           0x00000206        0x0 ../../..//mcu/libfitkit/build\libfitkit_f1xx.a(flash_fpga_f1xx.o)
 .bss           0x00000206        0x0 ../../..//mcu/libfitkit/build\libfitkit_f1xx.a(globfun_f1xx.o)
 .bss           0x00000206        0x0 ../../..//mcu/libfitkit/build\libfitkit_f1xx.a(terminal_f1xx.o)
 .bss           0x00000206        0x0 ../../..//mcu/libfitkit/build\libfitkit_f1xx.a(uart_f1xx.o)
 .bss           0x00000206        0x0 ../../..//mcu/libfitkit/build\libfitkit_f1xx.a(filetransfer_f1xx.o)
 .bss           0x00000206        0x0 ../../..//mcu/libfitkit/build\libfitkit_f1xx.a(cmd_f1xx.o)
 .bss           0x00000206        0x0 d:\mspgcc\bin\..\lib\gcc-lib\msp430\3.2.3\libgcc.a(__stop_progExec__.o)
 .bss           0x00000206        0x0 d:\mspgcc\bin\..\lib\gcc-lib\msp430\3.2.3\libgcc.a(_mulsi3hw.o)
 .bss           0x00000206        0x0 d:\mspgcc\bin\..\lib\gcc-lib\msp430\3.2.3\libgcc.a(_udivmodsi4.o)
 .bss           0x00000206        0x0 d:\mspgcc\bin\..\lib\gcc-lib\msp430\3.2.3\libgcc.a(_divmodsi4.o)
 .bss           0x00000206        0x0 d:\mspgcc\bin\..\lib\gcc-lib\msp430\3.2.3\libgcc.a(_reset_vector__.o)
 .bss           0x00000206        0x0 d:\mspgcc\bin\..\lib\gcc-lib\msp430\3.2.3\libgcc.a(__low_level_init.o)
 .bss           0x00000206        0x0 d:\mspgcc\bin\..\lib\gcc-lib\msp430\3.2.3\libgcc.a(_copy_data.o)
 .bss           0x00000206        0x0 d:\mspgcc\bin\..\lib\gcc-lib\msp430\3.2.3\libgcc.a(_clear_bss.o)
 .bss           0x00000206        0x0 d:\mspgcc\bin\..\lib\gcc-lib\msp430\3.2.3\libgcc.a(__jump_to_main.o)
 .bss           0x00000206        0x0 d:\mspgcc\bin\..\lib\gcc-lib\msp430\3.2.3\..\..\..\..\msp430\lib\libc.a(isdigit.o)
 .bss           0x00000206        0x0 d:\mspgcc\bin\..\lib\gcc-lib\msp430\3.2.3\..\..\..\..\msp430\lib\libc.a(strlen.o)
 *(SORT(.bss.*))
 *(COMMON)
 COMMON         0x00000206        0x2 build/mcu/os_cpu_c_f1xx.o
                0x00000206                OSISRStkPtr
 COMMON         0x00000208      0x456 build/mcu/os_core_f1xx.o
                0x00000208                OSLockNesting
                0x00000209                OSRunning
                0x0000020a                OSIdleCtr
                0x0000020e                OSPrioHighRdy
                0x0000020f                OSPrioCur
                0x00000210                OSTCBList
                0x00000212                OSTickStepState
                0x00000214                OSCtxSwCtr
                0x00000218                OSTCBFreeList
                0x0000021a                OSTaskCtr
                0x0000021c                OSQTbl
                0x00000238                OSTCBHighRdy
                0x0000023a                OSQFreeList
                0x0000023c                OSRdyGrp
                0x0000023e                OSRdyTbl
                0x00000246                OSEventFreeList
                0x00000248                OSIntNesting
                0x0000024a                OSTCBCur
                0x0000024c                OSTime
                0x00000250                OSTaskIdleStk
                0x000003a4                OSEventTbl
                0x00000494                OSTCBTbl
                0x000005de                OSTCBPrioTbl
 COMMON         0x0000065e       0x18 build/mcu/keyboard_f1xx.o
                0x0000065e                index_buf
                0x00000660                keyboard_buffer
                0x00000674                write_index_buf
                0x00000675                chars_in_buf
 COMMON         0x00000676        0x4 build/mcu/display_f1xx.o
                0x00000676                lcd_shift_addr
                0x00000678                lcd_cursor_addr
 COMMON         0x0000067a      0x200 build/mcu/app_f1xx.o
                0x0000067a                TaskRedLEDStk
                0x0000077a                TaskGreenLEDStk
 COMMON         0x0000087a        0x6 ../../..//mcu/libfitkit/build\libfitkit_f1xx.a(flash_f1xx.o)
                0x0000087a                CountPage
                0x0000087c                TypeBufferFlash
                0x0000087e                AdrBufferFlash
 COMMON         0x00000880        0x2 ../../..//mcu/libfitkit/build\libfitkit_f1xx.a(terminal_f1xx.o)
                0x00000880                Cmd_Old
                0x00000881                Cmd
 COMMON         0x00000882       0xf1 ../../..//mcu/libfitkit/build\libfitkit_f1xx.a(uart_f1xx.o)
                0x00000882                BreakFlag
                0x00000883                TransmitNum
                0x00000884                ReceiveNum
                0x00000886                ReceiveBuf
                0x00000906                ReceiveIndexRec
                0x00000908                TransmitBuf
                0x0000096c                ErrorFlag
                0x0000096e                ReceiveIndex
                0x00000970                TransmitIndexSend
                0x00000971                TransmitIndex
                0x00000972                PomRS232
 *fill*         0x00000973        0x1 00
 COMMON         0x00000974       0x1e ../../..//mcu/libfitkit/build\libfitkit_f1xx.a(cmd_f1xx.o)
                0x00000974                CMD_Long
                0x00000978                CMDStr
                0x00000991                CMDStrLen
                0x00000992                PROVIDE (__bss_end, .)
                0x00000992                _end = .
                0x0000078c                PROVIDE (__bss_size, SIZEOF (.bss))

.noinit         0x00000992        0x0
                0x00000992                PROVIDE (__noinit_start, .)
 *(.noinit)
 *(.noinit.*)
 *(COMMON)
                0x00000992                PROVIDE (__noinit_end, .)
                0x00000992                _end = .

.vectors        0x0000ffe0       0x20
                0x0000ffe0                PROVIDE (__vectors_start, .)
 *(.vectors*)
 .vectors       0x0000ffe0       0x20 d:\mspgcc\bin\..\lib\gcc-lib\msp430\3.2.3\..\..\..\..\msp430\lib\crt430x168.o
                0x0000ffe0                InterruptVectors
 *(.vectors*)
                0x00010000                _vectors_end = .

.profiler
 *(.profiler)

.stab           0x00000000      0x678
 *(.stab)
 .stab          0x00000000       0xf0 d:\mspgcc\bin\..\lib\gcc-lib\msp430\3.2.3\..\..\..\..\msp430\lib\crt430x168.o
 .stab          0x000000f0      0x168 d:\mspgcc\bin\..\lib\gcc-lib\msp430\3.2.3\..\..\..\..\msp430\lib\libc.a(isdigit.o)
                                0x174 (size before relaxing)
 .stab          0x00000258      0x420 d:\mspgcc\bin\..\lib\gcc-lib\msp430\3.2.3\..\..\..\..\msp430\lib\libc.a(strlen.o)
                                0x42c (size before relaxing)

.stabstr        0x00000000      0x8d6
 *(.stabstr)
 .stabstr       0x00000000      0x8d6 d:\mspgcc\bin\..\lib\gcc-lib\msp430\3.2.3\..\..\..\..\msp430\lib\crt430x168.o

.stab.excl
 *(.stab.excl)

.stab.exclstr
 *(.stab.exclstr)

.stab.index
 *(.stab.index)

.stab.indexstr
 *(.stab.indexstr)

.comment
 *(.comment)

.debug
 *(.debug)

.line
 *(.line)

.debug_srcinfo
 *(.debug_srcinfo)

.debug_sfnames
 *(.debug_sfnames)

.debug_aranges
 *(.debug_aranges)

.debug_pubnames
 *(.debug_pubnames)

.debug_info
 *(.debug_info)
 *(.gnu.linkonce.wi.*)

.debug_abbrev
 *(.debug_abbrev)

.debug_line
 *(.debug_line)

.debug_frame
 *(.debug_frame)

.debug_str
 *(.debug_str)

.debug_loc
 *(.debug_loc)

.debug_macinfo
 *(.debug_macinfo)
                0x00000a00                PROVIDE (__stack, 0xa00)
                0x0000d16e                PROVIDE (__data_start_rom, _etext)
                0x0000d174                PROVIDE (__data_end_rom, (_etext + SIZEOF (.data)))
                0x0000d174                PROVIDE (__noinit_start_rom, (_etext + SIZEOF (.data)))
                0x0000d174                PROVIDE (__noinit_end_rom, ((_etext + SIZEOF (.data)) + SIZEOF (.noinit)))
                0x00000000                PROVIDE (__subdevice_has_heap, 0x0)
OUTPUT(build/ucosii_f1xx.elf elf32-msp430)
